
ctarget:     file format elf64-x86-64


Disassembly of section .init:

0000000000400b70 <_init>:
  400b70:	48 83 ec 08          	sub    $0x8,%rsp
  400b74:	48 8b 05 7d 34 20 00 	mov    0x20347d(%rip),%rax        # 603ff8 <__gmon_start__>
  400b7b:	48 85 c0             	test   %rax,%rax
  400b7e:	74 05                	je     400b85 <_init+0x15>
  400b80:	e8 1b 02 00 00       	callq  400da0 <__gmon_start__@plt>
  400b85:	48 83 c4 08          	add    $0x8,%rsp
  400b89:	c3                   	retq   

Disassembly of section .plt:

0000000000400b90 <.plt>:
  400b90:	ff 35 72 34 20 00    	pushq  0x203472(%rip)        # 604008 <_GLOBAL_OFFSET_TABLE_+0x8>
  400b96:	ff 25 74 34 20 00    	jmpq   *0x203474(%rip)        # 604010 <_GLOBAL_OFFSET_TABLE_+0x10>
  400b9c:	0f 1f 40 00          	nopl   0x0(%rax)

0000000000400ba0 <__errno_location@plt>:
  400ba0:	ff 25 72 34 20 00    	jmpq   *0x203472(%rip)        # 604018 <__errno_location@GLIBC_2.2.5>
  400ba6:	68 00 00 00 00       	pushq  $0x0
  400bab:	e9 e0 ff ff ff       	jmpq   400b90 <.plt>

0000000000400bb0 <srandom@plt>:
  400bb0:	ff 25 6a 34 20 00    	jmpq   *0x20346a(%rip)        # 604020 <srandom@GLIBC_2.2.5>
  400bb6:	68 01 00 00 00       	pushq  $0x1
  400bbb:	e9 d0 ff ff ff       	jmpq   400b90 <.plt>

0000000000400bc0 <strncmp@plt>:
  400bc0:	ff 25 62 34 20 00    	jmpq   *0x203462(%rip)        # 604028 <strncmp@GLIBC_2.2.5>
  400bc6:	68 02 00 00 00       	pushq  $0x2
  400bcb:	e9 c0 ff ff ff       	jmpq   400b90 <.plt>

0000000000400bd0 <strcpy@plt>:
  400bd0:	ff 25 5a 34 20 00    	jmpq   *0x20345a(%rip)        # 604030 <strcpy@GLIBC_2.2.5>
  400bd6:	68 03 00 00 00       	pushq  $0x3
  400bdb:	e9 b0 ff ff ff       	jmpq   400b90 <.plt>

0000000000400be0 <puts@plt>:
  400be0:	ff 25 52 34 20 00    	jmpq   *0x203452(%rip)        # 604038 <puts@GLIBC_2.2.5>
  400be6:	68 04 00 00 00       	pushq  $0x4
  400beb:	e9 a0 ff ff ff       	jmpq   400b90 <.plt>

0000000000400bf0 <write@plt>:
  400bf0:	ff 25 4a 34 20 00    	jmpq   *0x20344a(%rip)        # 604040 <write@GLIBC_2.2.5>
  400bf6:	68 05 00 00 00       	pushq  $0x5
  400bfb:	e9 90 ff ff ff       	jmpq   400b90 <.plt>

0000000000400c00 <mmap@plt>:
  400c00:	ff 25 42 34 20 00    	jmpq   *0x203442(%rip)        # 604048 <mmap@GLIBC_2.2.5>
  400c06:	68 06 00 00 00       	pushq  $0x6
  400c0b:	e9 80 ff ff ff       	jmpq   400b90 <.plt>

0000000000400c10 <printf@plt>:
  400c10:	ff 25 3a 34 20 00    	jmpq   *0x20343a(%rip)        # 604050 <printf@GLIBC_2.2.5>
  400c16:	68 07 00 00 00       	pushq  $0x7
  400c1b:	e9 70 ff ff ff       	jmpq   400b90 <.plt>

0000000000400c20 <memset@plt>:
  400c20:	ff 25 32 34 20 00    	jmpq   *0x203432(%rip)        # 604058 <memset@GLIBC_2.2.5>
  400c26:	68 08 00 00 00       	pushq  $0x8
  400c2b:	e9 60 ff ff ff       	jmpq   400b90 <.plt>

0000000000400c30 <alarm@plt>:
  400c30:	ff 25 2a 34 20 00    	jmpq   *0x20342a(%rip)        # 604060 <alarm@GLIBC_2.2.5>
  400c36:	68 09 00 00 00       	pushq  $0x9
  400c3b:	e9 50 ff ff ff       	jmpq   400b90 <.plt>

0000000000400c40 <close@plt>:
  400c40:	ff 25 22 34 20 00    	jmpq   *0x203422(%rip)        # 604068 <close@GLIBC_2.2.5>
  400c46:	68 0a 00 00 00       	pushq  $0xa
  400c4b:	e9 40 ff ff ff       	jmpq   400b90 <.plt>

0000000000400c50 <read@plt>:
  400c50:	ff 25 1a 34 20 00    	jmpq   *0x20341a(%rip)        # 604070 <read@GLIBC_2.2.5>
  400c56:	68 0b 00 00 00       	pushq  $0xb
  400c5b:	e9 30 ff ff ff       	jmpq   400b90 <.plt>

0000000000400c60 <__libc_start_main@plt>:
  400c60:	ff 25 12 34 20 00    	jmpq   *0x203412(%rip)        # 604078 <__libc_start_main@GLIBC_2.2.5>
  400c66:	68 0c 00 00 00       	pushq  $0xc
  400c6b:	e9 20 ff ff ff       	jmpq   400b90 <.plt>

0000000000400c70 <signal@plt>:
  400c70:	ff 25 0a 34 20 00    	jmpq   *0x20340a(%rip)        # 604080 <signal@GLIBC_2.2.5>
  400c76:	68 0d 00 00 00       	pushq  $0xd
  400c7b:	e9 10 ff ff ff       	jmpq   400b90 <.plt>

0000000000400c80 <gethostbyname@plt>:
  400c80:	ff 25 02 34 20 00    	jmpq   *0x203402(%rip)        # 604088 <gethostbyname@GLIBC_2.2.5>
  400c86:	68 0e 00 00 00       	pushq  $0xe
  400c8b:	e9 00 ff ff ff       	jmpq   400b90 <.plt>

0000000000400c90 <fprintf@plt>:
  400c90:	ff 25 fa 33 20 00    	jmpq   *0x2033fa(%rip)        # 604090 <fprintf@GLIBC_2.2.5>
  400c96:	68 0f 00 00 00       	pushq  $0xf
  400c9b:	e9 f0 fe ff ff       	jmpq   400b90 <.plt>

0000000000400ca0 <strtol@plt>:
  400ca0:	ff 25 f2 33 20 00    	jmpq   *0x2033f2(%rip)        # 604098 <strtol@GLIBC_2.2.5>
  400ca6:	68 10 00 00 00       	pushq  $0x10
  400cab:	e9 e0 fe ff ff       	jmpq   400b90 <.plt>

0000000000400cb0 <memcpy@plt>:
  400cb0:	ff 25 ea 33 20 00    	jmpq   *0x2033ea(%rip)        # 6040a0 <memcpy@GLIBC_2.14>
  400cb6:	68 11 00 00 00       	pushq  $0x11
  400cbb:	e9 d0 fe ff ff       	jmpq   400b90 <.plt>

0000000000400cc0 <time@plt>:
  400cc0:	ff 25 e2 33 20 00    	jmpq   *0x2033e2(%rip)        # 6040a8 <time@GLIBC_2.2.5>
  400cc6:	68 12 00 00 00       	pushq  $0x12
  400ccb:	e9 c0 fe ff ff       	jmpq   400b90 <.plt>

0000000000400cd0 <random@plt>:
  400cd0:	ff 25 da 33 20 00    	jmpq   *0x2033da(%rip)        # 6040b0 <random@GLIBC_2.2.5>
  400cd6:	68 13 00 00 00       	pushq  $0x13
  400cdb:	e9 b0 fe ff ff       	jmpq   400b90 <.plt>

0000000000400ce0 <_IO_getc@plt>:
  400ce0:	ff 25 d2 33 20 00    	jmpq   *0x2033d2(%rip)        # 6040b8 <_IO_getc@GLIBC_2.2.5>
  400ce6:	68 14 00 00 00       	pushq  $0x14
  400ceb:	e9 a0 fe ff ff       	jmpq   400b90 <.plt>

0000000000400cf0 <__isoc99_sscanf@plt>:
  400cf0:	ff 25 ca 33 20 00    	jmpq   *0x2033ca(%rip)        # 6040c0 <__isoc99_sscanf@GLIBC_2.7>
  400cf6:	68 15 00 00 00       	pushq  $0x15
  400cfb:	e9 90 fe ff ff       	jmpq   400b90 <.plt>

0000000000400d00 <munmap@plt>:
  400d00:	ff 25 c2 33 20 00    	jmpq   *0x2033c2(%rip)        # 6040c8 <munmap@GLIBC_2.2.5>
  400d06:	68 16 00 00 00       	pushq  $0x16
  400d0b:	e9 80 fe ff ff       	jmpq   400b90 <.plt>

0000000000400d10 <bcopy@plt>:
  400d10:	ff 25 ba 33 20 00    	jmpq   *0x2033ba(%rip)        # 6040d0 <bcopy@GLIBC_2.2.5>
  400d16:	68 17 00 00 00       	pushq  $0x17
  400d1b:	e9 70 fe ff ff       	jmpq   400b90 <.plt>

0000000000400d20 <fopen@plt>:
  400d20:	ff 25 b2 33 20 00    	jmpq   *0x2033b2(%rip)        # 6040d8 <fopen@GLIBC_2.2.5>
  400d26:	68 18 00 00 00       	pushq  $0x18
  400d2b:	e9 60 fe ff ff       	jmpq   400b90 <.plt>

0000000000400d30 <getopt@plt>:
  400d30:	ff 25 aa 33 20 00    	jmpq   *0x2033aa(%rip)        # 6040e0 <getopt@GLIBC_2.2.5>
  400d36:	68 19 00 00 00       	pushq  $0x19
  400d3b:	e9 50 fe ff ff       	jmpq   400b90 <.plt>

0000000000400d40 <strtoul@plt>:
  400d40:	ff 25 a2 33 20 00    	jmpq   *0x2033a2(%rip)        # 6040e8 <strtoul@GLIBC_2.2.5>
  400d46:	68 1a 00 00 00       	pushq  $0x1a
  400d4b:	e9 40 fe ff ff       	jmpq   400b90 <.plt>

0000000000400d50 <gethostname@plt>:
  400d50:	ff 25 9a 33 20 00    	jmpq   *0x20339a(%rip)        # 6040f0 <gethostname@GLIBC_2.2.5>
  400d56:	68 1b 00 00 00       	pushq  $0x1b
  400d5b:	e9 30 fe ff ff       	jmpq   400b90 <.plt>

0000000000400d60 <sprintf@plt>:
  400d60:	ff 25 92 33 20 00    	jmpq   *0x203392(%rip)        # 6040f8 <sprintf@GLIBC_2.2.5>
  400d66:	68 1c 00 00 00       	pushq  $0x1c
  400d6b:	e9 20 fe ff ff       	jmpq   400b90 <.plt>

0000000000400d70 <exit@plt>:
  400d70:	ff 25 8a 33 20 00    	jmpq   *0x20338a(%rip)        # 604100 <exit@GLIBC_2.2.5>
  400d76:	68 1d 00 00 00       	pushq  $0x1d
  400d7b:	e9 10 fe ff ff       	jmpq   400b90 <.plt>

0000000000400d80 <connect@plt>:
  400d80:	ff 25 82 33 20 00    	jmpq   *0x203382(%rip)        # 604108 <connect@GLIBC_2.2.5>
  400d86:	68 1e 00 00 00       	pushq  $0x1e
  400d8b:	e9 00 fe ff ff       	jmpq   400b90 <.plt>

0000000000400d90 <socket@plt>:
  400d90:	ff 25 7a 33 20 00    	jmpq   *0x20337a(%rip)        # 604110 <socket@GLIBC_2.2.5>
  400d96:	68 1f 00 00 00       	pushq  $0x1f
  400d9b:	e9 f0 fd ff ff       	jmpq   400b90 <.plt>

Disassembly of section .plt.got:

0000000000400da0 <__gmon_start__@plt>:
  400da0:	ff 25 52 32 20 00    	jmpq   *0x203252(%rip)        # 603ff8 <__gmon_start__>
  400da6:	66 90                	xchg   %ax,%ax

Disassembly of section .text:

0000000000400db0 <_start>:
  400db0:	31 ed                	xor    %ebp,%ebp
  400db2:	49 89 d1             	mov    %rdx,%r9
  400db5:	5e                   	pop    %rsi
  400db6:	48 89 e2             	mov    %rsp,%rdx
  400db9:	48 83 e4 f0          	and    $0xfffffffffffffff0,%rsp
  400dbd:	50                   	push   %rax
  400dbe:	54                   	push   %rsp
  400dbf:	49 c7 c0 50 2b 40 00 	mov    $0x402b50,%r8
  400dc6:	48 c7 c1 e0 2a 40 00 	mov    $0x402ae0,%rcx
  400dcd:	48 c7 c7 1b 10 40 00 	mov    $0x40101b,%rdi
  400dd4:	e8 87 fe ff ff       	callq  400c60 <__libc_start_main@plt>
  400dd9:	f4                   	hlt    
  400dda:	66 0f 1f 44 00 00    	nopw   0x0(%rax,%rax,1)

0000000000400de0 <deregister_tm_clones>:
  400de0:	b8 97 44 60 00       	mov    $0x604497,%eax
  400de5:	55                   	push   %rbp
  400de6:	48 2d 90 44 60 00    	sub    $0x604490,%rax
  400dec:	48 83 f8 0e          	cmp    $0xe,%rax
  400df0:	48 89 e5             	mov    %rsp,%rbp
  400df3:	77 02                	ja     400df7 <deregister_tm_clones+0x17>
  400df5:	5d                   	pop    %rbp
  400df6:	c3                   	retq   
  400df7:	b8 00 00 00 00       	mov    $0x0,%eax
  400dfc:	48 85 c0             	test   %rax,%rax
  400dff:	74 f4                	je     400df5 <deregister_tm_clones+0x15>
  400e01:	5d                   	pop    %rbp
  400e02:	bf 90 44 60 00       	mov    $0x604490,%edi
  400e07:	ff e0                	jmpq   *%rax
  400e09:	0f 1f 80 00 00 00 00 	nopl   0x0(%rax)

0000000000400e10 <register_tm_clones>:
  400e10:	b8 90 44 60 00       	mov    $0x604490,%eax
  400e15:	55                   	push   %rbp
  400e16:	48 2d 90 44 60 00    	sub    $0x604490,%rax
  400e1c:	48 c1 f8 03          	sar    $0x3,%rax
  400e20:	48 89 e5             	mov    %rsp,%rbp
  400e23:	48 89 c2             	mov    %rax,%rdx
  400e26:	48 c1 ea 3f          	shr    $0x3f,%rdx
  400e2a:	48 01 d0             	add    %rdx,%rax
  400e2d:	48 d1 f8             	sar    %rax
  400e30:	75 02                	jne    400e34 <register_tm_clones+0x24>
  400e32:	5d                   	pop    %rbp
  400e33:	c3                   	retq   
  400e34:	ba 00 00 00 00       	mov    $0x0,%edx
  400e39:	48 85 d2             	test   %rdx,%rdx
  400e3c:	74 f4                	je     400e32 <register_tm_clones+0x22>
  400e3e:	5d                   	pop    %rbp
  400e3f:	48 89 c6             	mov    %rax,%rsi
  400e42:	bf 90 44 60 00       	mov    $0x604490,%edi
  400e47:	ff e2                	jmpq   *%rdx
  400e49:	0f 1f 80 00 00 00 00 	nopl   0x0(%rax)

0000000000400e50 <__do_global_dtors_aux>:
  400e50:	80 3d 61 36 20 00 00 	cmpb   $0x0,0x203661(%rip)        # 6044b8 <completed.6355>
  400e57:	75 11                	jne    400e6a <__do_global_dtors_aux+0x1a>
  400e59:	55                   	push   %rbp
  400e5a:	48 89 e5             	mov    %rsp,%rbp
  400e5d:	e8 7e ff ff ff       	callq  400de0 <deregister_tm_clones>
  400e62:	5d                   	pop    %rbp
  400e63:	c6 05 4e 36 20 00 01 	movb   $0x1,0x20364e(%rip)        # 6044b8 <completed.6355>
  400e6a:	f3 c3                	repz retq 
  400e6c:	0f 1f 40 00          	nopl   0x0(%rax)

0000000000400e70 <frame_dummy>:
  400e70:	48 83 3d a8 2f 20 00 	cmpq   $0x0,0x202fa8(%rip)        # 603e20 <__JCR_END__>
  400e77:	00 
  400e78:	74 1e                	je     400e98 <frame_dummy+0x28>
  400e7a:	b8 00 00 00 00       	mov    $0x0,%eax
  400e7f:	48 85 c0             	test   %rax,%rax
  400e82:	74 14                	je     400e98 <frame_dummy+0x28>
  400e84:	55                   	push   %rbp
  400e85:	bf 20 3e 60 00       	mov    $0x603e20,%edi
  400e8a:	48 89 e5             	mov    %rsp,%rbp
  400e8d:	ff d0                	callq  *%rax
  400e8f:	5d                   	pop    %rbp
  400e90:	e9 7b ff ff ff       	jmpq   400e10 <register_tm_clones>
  400e95:	0f 1f 00             	nopl   (%rax)
  400e98:	e9 73 ff ff ff       	jmpq   400e10 <register_tm_clones>
  400e9d:	0f 1f 00             	nopl   (%rax)

0000000000400ea0 <usage>:
  400ea0:	48 83 ec 08          	sub    $0x8,%rsp
  400ea4:	48 89 fe             	mov    %rdi,%rsi
  400ea7:	83 3d 3a 36 20 00 00 	cmpl   $0x0,0x20363a(%rip)        # 6044e8 <is_checker>
  400eae:	74 39                	je     400ee9 <usage+0x49>
  400eb0:	bf 70 2b 40 00       	mov    $0x402b70,%edi
  400eb5:	b8 00 00 00 00       	mov    $0x0,%eax
  400eba:	e8 51 fd ff ff       	callq  400c10 <printf@plt>
  400ebf:	bf a8 2b 40 00       	mov    $0x402ba8,%edi
  400ec4:	e8 17 fd ff ff       	callq  400be0 <puts@plt>
  400ec9:	bf e0 2c 40 00       	mov    $0x402ce0,%edi
  400ece:	e8 0d fd ff ff       	callq  400be0 <puts@plt>
  400ed3:	bf d0 2b 40 00       	mov    $0x402bd0,%edi
  400ed8:	e8 03 fd ff ff       	callq  400be0 <puts@plt>
  400edd:	bf fa 2c 40 00       	mov    $0x402cfa,%edi
  400ee2:	e8 f9 fc ff ff       	callq  400be0 <puts@plt>
  400ee7:	eb 2d                	jmp    400f16 <usage+0x76>
  400ee9:	bf 16 2d 40 00       	mov    $0x402d16,%edi
  400eee:	b8 00 00 00 00       	mov    $0x0,%eax
  400ef3:	e8 18 fd ff ff       	callq  400c10 <printf@plt>
  400ef8:	bf f8 2b 40 00       	mov    $0x402bf8,%edi
  400efd:	e8 de fc ff ff       	callq  400be0 <puts@plt>
  400f02:	bf 20 2c 40 00       	mov    $0x402c20,%edi
  400f07:	e8 d4 fc ff ff       	callq  400be0 <puts@plt>
  400f0c:	bf 34 2d 40 00       	mov    $0x402d34,%edi
  400f11:	e8 ca fc ff ff       	callq  400be0 <puts@plt>
  400f16:	bf 00 00 00 00       	mov    $0x0,%edi
  400f1b:	e8 50 fe ff ff       	callq  400d70 <exit@plt>

0000000000400f20 <initialize_target>:
  400f20:	55                   	push   %rbp
  400f21:	53                   	push   %rbx
  400f22:	48 81 ec 08 21 00 00 	sub    $0x2108,%rsp
  400f29:	89 f5                	mov    %esi,%ebp
  400f2b:	89 3d a7 35 20 00    	mov    %edi,0x2035a7(%rip)        # 6044d8 <check_level>
  400f31:	8b 3d 11 32 20 00    	mov    0x203211(%rip),%edi        # 604148 <target_id>
  400f37:	e8 77 1b 00 00       	callq  402ab3 <gencookie>
  400f3c:	89 05 a2 35 20 00    	mov    %eax,0x2035a2(%rip)        # 6044e4 <cookie>
  400f42:	89 c7                	mov    %eax,%edi
  400f44:	e8 6a 1b 00 00       	callq  402ab3 <gencookie>
  400f49:	89 05 91 35 20 00    	mov    %eax,0x203591(%rip)        # 6044e0 <authkey>
  400f4f:	8b 05 f3 31 20 00    	mov    0x2031f3(%rip),%eax        # 604148 <target_id>
  400f55:	8d 78 01             	lea    0x1(%rax),%edi
  400f58:	e8 53 fc ff ff       	callq  400bb0 <srandom@plt>
  400f5d:	e8 6e fd ff ff       	callq  400cd0 <random@plt>
  400f62:	89 c7                	mov    %eax,%edi
  400f64:	e8 75 02 00 00       	callq  4011de <scramble>
  400f69:	89 c3                	mov    %eax,%ebx
  400f6b:	85 ed                	test   %ebp,%ebp
  400f6d:	74 18                	je     400f87 <initialize_target+0x67>
  400f6f:	bf 00 00 00 00       	mov    $0x0,%edi
  400f74:	e8 47 fd ff ff       	callq  400cc0 <time@plt>
  400f79:	89 c7                	mov    %eax,%edi
  400f7b:	e8 30 fc ff ff       	callq  400bb0 <srandom@plt>
  400f80:	e8 4b fd ff ff       	callq  400cd0 <random@plt>
  400f85:	eb 05                	jmp    400f8c <initialize_target+0x6c>
  400f87:	b8 00 00 00 00       	mov    $0x0,%eax
  400f8c:	01 c3                	add    %eax,%ebx
  400f8e:	0f b7 db             	movzwl %bx,%ebx
  400f91:	8d 04 dd 00 01 00 00 	lea    0x100(,%rbx,8),%eax
  400f98:	89 c0                	mov    %eax,%eax
  400f9a:	48 89 05 df 34 20 00 	mov    %rax,0x2034df(%rip)        # 604480 <buf_offset>
  400fa1:	c6 05 60 41 20 00 63 	movb   $0x63,0x204160(%rip)        # 605108 <target_prefix>
  400fa8:	83 3d d9 34 20 00 00 	cmpl   $0x0,0x2034d9(%rip)        # 604488 <notify>
  400faf:	74 60                	je     401011 <initialize_target+0xf1>
  400fb1:	83 3d 30 35 20 00 00 	cmpl   $0x0,0x203530(%rip)        # 6044e8 <is_checker>
  400fb8:	75 57                	jne    401011 <initialize_target+0xf1>
  400fba:	be 00 01 00 00       	mov    $0x100,%esi
  400fbf:	48 89 e7             	mov    %rsp,%rdi
  400fc2:	e8 89 fd ff ff       	callq  400d50 <gethostname@plt>
  400fc7:	85 c0                	test   %eax,%eax
  400fc9:	74 14                	je     400fdf <initialize_target+0xbf>
  400fcb:	bf 50 2c 40 00       	mov    $0x402c50,%edi
  400fd0:	e8 0b fc ff ff       	callq  400be0 <puts@plt>
  400fd5:	bf 08 00 00 00       	mov    $0x8,%edi
  400fda:	e8 91 fd ff ff       	callq  400d70 <exit@plt>
  400fdf:	48 8d bc 24 00 01 00 	lea    0x100(%rsp),%rdi
  400fe6:	00 
  400fe7:	e8 5e 18 00 00       	callq  40284a <init_driver>
  400fec:	85 c0                	test   %eax,%eax
  400fee:	79 21                	jns    401011 <initialize_target+0xf1>
  400ff0:	48 8d b4 24 00 01 00 	lea    0x100(%rsp),%rsi
  400ff7:	00 
  400ff8:	bf 88 2c 40 00       	mov    $0x402c88,%edi
  400ffd:	b8 00 00 00 00       	mov    $0x0,%eax
  401002:	e8 09 fc ff ff       	callq  400c10 <printf@plt>
  401007:	bf 08 00 00 00       	mov    $0x8,%edi
  40100c:	e8 5f fd ff ff       	callq  400d70 <exit@plt>
  401011:	48 81 c4 08 21 00 00 	add    $0x2108,%rsp
  401018:	5b                   	pop    %rbx
  401019:	5d                   	pop    %rbp
  40101a:	c3                   	retq   

000000000040101b <main>:
  40101b:	41 56                	push   %r14
  40101d:	41 55                	push   %r13
  40101f:	41 54                	push   %r12
  401021:	55                   	push   %rbp
  401022:	53                   	push   %rbx
  401023:	41 89 fc             	mov    %edi,%r12d
  401026:	48 89 f3             	mov    %rsi,%rbx
  401029:	be 71 1c 40 00       	mov    $0x401c71,%esi
  40102e:	bf 0b 00 00 00       	mov    $0xb,%edi
  401033:	e8 38 fc ff ff       	callq  400c70 <signal@plt>
  401038:	be 23 1c 40 00       	mov    $0x401c23,%esi
  40103d:	bf 07 00 00 00       	mov    $0x7,%edi
  401042:	e8 29 fc ff ff       	callq  400c70 <signal@plt>
  401047:	be bf 1c 40 00       	mov    $0x401cbf,%esi
  40104c:	bf 04 00 00 00       	mov    $0x4,%edi
  401051:	e8 1a fc ff ff       	callq  400c70 <signal@plt>
  401056:	83 3d 8b 34 20 00 00 	cmpl   $0x0,0x20348b(%rip)        # 6044e8 <is_checker>
  40105d:	74 20                	je     40107f <main+0x64>
  40105f:	be 0d 1d 40 00       	mov    $0x401d0d,%esi
  401064:	bf 0e 00 00 00       	mov    $0xe,%edi
  401069:	e8 02 fc ff ff       	callq  400c70 <signal@plt>
  40106e:	bf 05 00 00 00       	mov    $0x5,%edi
  401073:	e8 b8 fb ff ff       	callq  400c30 <alarm@plt>
  401078:	bd 52 2d 40 00       	mov    $0x402d52,%ebp
  40107d:	eb 05                	jmp    401084 <main+0x69>
  40107f:	bd 4d 2d 40 00       	mov    $0x402d4d,%ebp
  401084:	48 8b 05 15 34 20 00 	mov    0x203415(%rip),%rax        # 6044a0 <stdin@@GLIBC_2.2.5>
  40108b:	48 89 05 3e 34 20 00 	mov    %rax,0x20343e(%rip)        # 6044d0 <infile>
  401092:	41 bd 00 00 00 00    	mov    $0x0,%r13d
  401098:	41 be 00 00 00 00    	mov    $0x0,%r14d
  40109e:	e9 b9 00 00 00       	jmpq   40115c <main+0x141>
  4010a3:	83 e8 61             	sub    $0x61,%eax
  4010a6:	3c 10                	cmp    $0x10,%al
  4010a8:	0f 87 93 00 00 00    	ja     401141 <main+0x126>
  4010ae:	0f b6 c0             	movzbl %al,%eax
  4010b1:	ff 24 c5 98 2d 40 00 	jmpq   *0x402d98(,%rax,8)
  4010b8:	48 8b 3b             	mov    (%rbx),%rdi
  4010bb:	e8 e0 fd ff ff       	callq  400ea0 <usage>
  4010c0:	be 1d 30 40 00       	mov    $0x40301d,%esi
  4010c5:	48 8b 3d dc 33 20 00 	mov    0x2033dc(%rip),%rdi        # 6044a8 <optarg@@GLIBC_2.2.5>
  4010cc:	e8 4f fc ff ff       	callq  400d20 <fopen@plt>
  4010d1:	48 89 05 f8 33 20 00 	mov    %rax,0x2033f8(%rip)        # 6044d0 <infile>
  4010d8:	48 85 c0             	test   %rax,%rax
  4010db:	75 7f                	jne    40115c <main+0x141>
  4010dd:	48 8b 15 c4 33 20 00 	mov    0x2033c4(%rip),%rdx        # 6044a8 <optarg@@GLIBC_2.2.5>
  4010e4:	be 5a 2d 40 00       	mov    $0x402d5a,%esi
  4010e9:	48 8b 3d c0 33 20 00 	mov    0x2033c0(%rip),%rdi        # 6044b0 <stderr@@GLIBC_2.2.5>
  4010f0:	e8 9b fb ff ff       	callq  400c90 <fprintf@plt>
  4010f5:	b8 01 00 00 00       	mov    $0x1,%eax
  4010fa:	e9 d6 00 00 00       	jmpq   4011d5 <main+0x1ba>
  4010ff:	ba 10 00 00 00       	mov    $0x10,%edx
  401104:	be 00 00 00 00       	mov    $0x0,%esi
  401109:	48 8b 3d 98 33 20 00 	mov    0x203398(%rip),%rdi        # 6044a8 <optarg@@GLIBC_2.2.5>
  401110:	e8 2b fc ff ff       	callq  400d40 <strtoul@plt>
  401115:	41 89 c6             	mov    %eax,%r14d
  401118:	eb 42                	jmp    40115c <main+0x141>
  40111a:	ba 0a 00 00 00       	mov    $0xa,%edx
  40111f:	be 00 00 00 00       	mov    $0x0,%esi
  401124:	48 8b 3d 7d 33 20 00 	mov    0x20337d(%rip),%rdi        # 6044a8 <optarg@@GLIBC_2.2.5>
  40112b:	e8 70 fb ff ff       	callq  400ca0 <strtol@plt>
  401130:	41 89 c5             	mov    %eax,%r13d
  401133:	eb 27                	jmp    40115c <main+0x141>
  401135:	c7 05 49 33 20 00 00 	movl   $0x0,0x203349(%rip)        # 604488 <notify>
  40113c:	00 00 00 
  40113f:	eb 1b                	jmp    40115c <main+0x141>
  401141:	40 0f be f6          	movsbl %sil,%esi
  401145:	bf 77 2d 40 00       	mov    $0x402d77,%edi
  40114a:	b8 00 00 00 00       	mov    $0x0,%eax
  40114f:	e8 bc fa ff ff       	callq  400c10 <printf@plt>
  401154:	48 8b 3b             	mov    (%rbx),%rdi
  401157:	e8 44 fd ff ff       	callq  400ea0 <usage>
  40115c:	48 89 ea             	mov    %rbp,%rdx
  40115f:	48 89 de             	mov    %rbx,%rsi
  401162:	44 89 e7             	mov    %r12d,%edi
  401165:	e8 c6 fb ff ff       	callq  400d30 <getopt@plt>
  40116a:	89 c6                	mov    %eax,%esi
  40116c:	3c ff                	cmp    $0xff,%al
  40116e:	0f 85 2f ff ff ff    	jne    4010a3 <main+0x88>
  401174:	be 00 00 00 00       	mov    $0x0,%esi
  401179:	44 89 ef             	mov    %r13d,%edi
  40117c:	e8 9f fd ff ff       	callq  400f20 <initialize_target>
  401181:	83 3d 60 33 20 00 00 	cmpl   $0x0,0x203360(%rip)        # 6044e8 <is_checker>
  401188:	74 25                	je     4011af <main+0x194>
  40118a:	44 3b 35 4f 33 20 00 	cmp    0x20334f(%rip),%r14d        # 6044e0 <authkey>
  401191:	74 1c                	je     4011af <main+0x194>
  401193:	44 89 f6             	mov    %r14d,%esi
  401196:	bf b0 2c 40 00       	mov    $0x402cb0,%edi
  40119b:	b8 00 00 00 00       	mov    $0x0,%eax
  4011a0:	e8 6b fa ff ff       	callq  400c10 <printf@plt>
  4011a5:	b8 00 00 00 00       	mov    $0x0,%eax
  4011aa:	e8 7c 07 00 00       	callq  40192b <check_fail>
  4011af:	8b 35 2f 33 20 00    	mov    0x20332f(%rip),%esi        # 6044e4 <cookie>
  4011b5:	bf 8a 2d 40 00       	mov    $0x402d8a,%edi
  4011ba:	b8 00 00 00 00       	mov    $0x0,%eax
  4011bf:	e8 4c fa ff ff       	callq  400c10 <printf@plt>
  4011c4:	48 8b 3d b5 32 20 00 	mov    0x2032b5(%rip),%rdi        # 604480 <buf_offset>
  4011cb:	e8 0c 0c 00 00       	callq  401ddc <stable_launch>
  4011d0:	b8 00 00 00 00       	mov    $0x0,%eax
  4011d5:	5b                   	pop    %rbx
  4011d6:	5d                   	pop    %rbp
  4011d7:	41 5c                	pop    %r12
  4011d9:	41 5d                	pop    %r13
  4011db:	41 5e                	pop    %r14
  4011dd:	c3                   	retq   

00000000004011de <scramble>:
  4011de:	b8 00 00 00 00       	mov    $0x0,%eax
  4011e3:	eb 11                	jmp    4011f6 <scramble+0x18>
  4011e5:	69 c8 fa f8 00 00    	imul   $0xf8fa,%eax,%ecx
  4011eb:	01 f9                	add    %edi,%ecx
  4011ed:	89 c2                	mov    %eax,%edx
  4011ef:	89 4c 94 d0          	mov    %ecx,-0x30(%rsp,%rdx,4)
  4011f3:	83 c0 01             	add    $0x1,%eax
  4011f6:	83 f8 09             	cmp    $0x9,%eax
  4011f9:	76 ea                	jbe    4011e5 <scramble+0x7>
  4011fb:	8b 44 24 ec          	mov    -0x14(%rsp),%eax
  4011ff:	69 c0 40 12 00 00    	imul   $0x1240,%eax,%eax
  401205:	89 44 24 ec          	mov    %eax,-0x14(%rsp)
  401209:	8b 44 24 d0          	mov    -0x30(%rsp),%eax
  40120d:	69 c0 d5 46 00 00    	imul   $0x46d5,%eax,%eax
  401213:	89 44 24 d0          	mov    %eax,-0x30(%rsp)
  401217:	8b 44 24 e8          	mov    -0x18(%rsp),%eax
  40121b:	69 c0 36 65 00 00    	imul   $0x6536,%eax,%eax
  401221:	89 44 24 e8          	mov    %eax,-0x18(%rsp)
  401225:	8b 44 24 d8          	mov    -0x28(%rsp),%eax
  401229:	69 c0 f7 dc 00 00    	imul   $0xdcf7,%eax,%eax
  40122f:	89 44 24 d8          	mov    %eax,-0x28(%rsp)
  401233:	8b 44 24 d4          	mov    -0x2c(%rsp),%eax
  401237:	69 c0 3a e6 00 00    	imul   $0xe63a,%eax,%eax
  40123d:	89 44 24 d4          	mov    %eax,-0x2c(%rsp)
  401241:	8b 44 24 d4          	mov    -0x2c(%rsp),%eax
  401245:	69 c0 c5 e0 00 00    	imul   $0xe0c5,%eax,%eax
  40124b:	89 44 24 d4          	mov    %eax,-0x2c(%rsp)
  40124f:	8b 44 24 ec          	mov    -0x14(%rsp),%eax
  401253:	69 c0 ca 6f 00 00    	imul   $0x6fca,%eax,%eax
  401259:	89 44 24 ec          	mov    %eax,-0x14(%rsp)
  40125d:	8b 44 24 d8          	mov    -0x28(%rsp),%eax
  401261:	69 c0 ae 98 00 00    	imul   $0x98ae,%eax,%eax
  401267:	89 44 24 d8          	mov    %eax,-0x28(%rsp)
  40126b:	8b 44 24 e8          	mov    -0x18(%rsp),%eax
  40126f:	69 c0 fb c9 00 00    	imul   $0xc9fb,%eax,%eax
  401275:	89 44 24 e8          	mov    %eax,-0x18(%rsp)
  401279:	8b 44 24 f4          	mov    -0xc(%rsp),%eax
  40127d:	69 c0 4c e6 00 00    	imul   $0xe64c,%eax,%eax
  401283:	89 44 24 f4          	mov    %eax,-0xc(%rsp)
  401287:	8b 44 24 ec          	mov    -0x14(%rsp),%eax
  40128b:	69 c0 58 95 00 00    	imul   $0x9558,%eax,%eax
  401291:	89 44 24 ec          	mov    %eax,-0x14(%rsp)
  401295:	8b 44 24 f4          	mov    -0xc(%rsp),%eax
  401299:	69 c0 1f 77 00 00    	imul   $0x771f,%eax,%eax
  40129f:	89 44 24 f4          	mov    %eax,-0xc(%rsp)
  4012a3:	8b 44 24 e8          	mov    -0x18(%rsp),%eax
  4012a7:	69 c0 14 d2 00 00    	imul   $0xd214,%eax,%eax
  4012ad:	89 44 24 e8          	mov    %eax,-0x18(%rsp)
  4012b1:	8b 44 24 d4          	mov    -0x2c(%rsp),%eax
  4012b5:	69 c0 33 92 00 00    	imul   $0x9233,%eax,%eax
  4012bb:	89 44 24 d4          	mov    %eax,-0x2c(%rsp)
  4012bf:	8b 44 24 f4          	mov    -0xc(%rsp),%eax
  4012c3:	69 c0 20 2b 00 00    	imul   $0x2b20,%eax,%eax
  4012c9:	89 44 24 f4          	mov    %eax,-0xc(%rsp)
  4012cd:	8b 44 24 d8          	mov    -0x28(%rsp),%eax
  4012d1:	69 c0 24 60 00 00    	imul   $0x6024,%eax,%eax
  4012d7:	89 44 24 d8          	mov    %eax,-0x28(%rsp)
  4012db:	8b 44 24 ec          	mov    -0x14(%rsp),%eax
  4012df:	69 c0 c4 9e 00 00    	imul   $0x9ec4,%eax,%eax
  4012e5:	89 44 24 ec          	mov    %eax,-0x14(%rsp)
  4012e9:	8b 44 24 f4          	mov    -0xc(%rsp),%eax
  4012ed:	69 c0 6d c7 00 00    	imul   $0xc76d,%eax,%eax
  4012f3:	89 44 24 f4          	mov    %eax,-0xc(%rsp)
  4012f7:	8b 44 24 e8          	mov    -0x18(%rsp),%eax
  4012fb:	69 c0 cd 51 00 00    	imul   $0x51cd,%eax,%eax
  401301:	89 44 24 e8          	mov    %eax,-0x18(%rsp)
  401305:	8b 44 24 f4          	mov    -0xc(%rsp),%eax
  401309:	69 c0 6d ed 00 00    	imul   $0xed6d,%eax,%eax
  40130f:	89 44 24 f4          	mov    %eax,-0xc(%rsp)
  401313:	8b 44 24 d8          	mov    -0x28(%rsp),%eax
  401317:	69 c0 2f 98 00 00    	imul   $0x982f,%eax,%eax
  40131d:	89 44 24 d8          	mov    %eax,-0x28(%rsp)
  401321:	8b 44 24 d0          	mov    -0x30(%rsp),%eax
  401325:	69 c0 81 3c 00 00    	imul   $0x3c81,%eax,%eax
  40132b:	89 44 24 d0          	mov    %eax,-0x30(%rsp)
  40132f:	8b 44 24 ec          	mov    -0x14(%rsp),%eax
  401333:	69 c0 41 9c 00 00    	imul   $0x9c41,%eax,%eax
  401339:	89 44 24 ec          	mov    %eax,-0x14(%rsp)
  40133d:	8b 44 24 d8          	mov    -0x28(%rsp),%eax
  401341:	69 c0 66 3b 00 00    	imul   $0x3b66,%eax,%eax
  401347:	89 44 24 d8          	mov    %eax,-0x28(%rsp)
  40134b:	8b 44 24 ec          	mov    -0x14(%rsp),%eax
  40134f:	69 c0 bd f5 00 00    	imul   $0xf5bd,%eax,%eax
  401355:	89 44 24 ec          	mov    %eax,-0x14(%rsp)
  401359:	8b 44 24 dc          	mov    -0x24(%rsp),%eax
  40135d:	69 c0 9c 5c 00 00    	imul   $0x5c9c,%eax,%eax
  401363:	89 44 24 dc          	mov    %eax,-0x24(%rsp)
  401367:	8b 44 24 d4          	mov    -0x2c(%rsp),%eax
  40136b:	69 c0 40 ed 00 00    	imul   $0xed40,%eax,%eax
  401371:	89 44 24 d4          	mov    %eax,-0x2c(%rsp)
  401375:	8b 44 24 e0          	mov    -0x20(%rsp),%eax
  401379:	69 c0 b0 ed 00 00    	imul   $0xedb0,%eax,%eax
  40137f:	89 44 24 e0          	mov    %eax,-0x20(%rsp)
  401383:	8b 44 24 dc          	mov    -0x24(%rsp),%eax
  401387:	69 c0 fd 39 00 00    	imul   $0x39fd,%eax,%eax
  40138d:	89 44 24 dc          	mov    %eax,-0x24(%rsp)
  401391:	8b 44 24 dc          	mov    -0x24(%rsp),%eax
  401395:	69 c0 7d 26 00 00    	imul   $0x267d,%eax,%eax
  40139b:	89 44 24 dc          	mov    %eax,-0x24(%rsp)
  40139f:	8b 44 24 ec          	mov    -0x14(%rsp),%eax
  4013a3:	69 c0 1e 5c 00 00    	imul   $0x5c1e,%eax,%eax
  4013a9:	89 44 24 ec          	mov    %eax,-0x14(%rsp)
  4013ad:	8b 44 24 d0          	mov    -0x30(%rsp),%eax
  4013b1:	69 c0 7d a2 00 00    	imul   $0xa27d,%eax,%eax
  4013b7:	89 44 24 d0          	mov    %eax,-0x30(%rsp)
  4013bb:	8b 44 24 d8          	mov    -0x28(%rsp),%eax
  4013bf:	69 c0 9a 2d 00 00    	imul   $0x2d9a,%eax,%eax
  4013c5:	89 44 24 d8          	mov    %eax,-0x28(%rsp)
  4013c9:	8b 44 24 d4          	mov    -0x2c(%rsp),%eax
  4013cd:	69 c0 dd fe 00 00    	imul   $0xfedd,%eax,%eax
  4013d3:	89 44 24 d4          	mov    %eax,-0x2c(%rsp)
  4013d7:	8b 44 24 e8          	mov    -0x18(%rsp),%eax
  4013db:	69 c0 4f 0e 00 00    	imul   $0xe4f,%eax,%eax
  4013e1:	89 44 24 e8          	mov    %eax,-0x18(%rsp)
  4013e5:	8b 44 24 d0          	mov    -0x30(%rsp),%eax
  4013e9:	69 c0 6f b7 00 00    	imul   $0xb76f,%eax,%eax
  4013ef:	89 44 24 d0          	mov    %eax,-0x30(%rsp)
  4013f3:	8b 44 24 e0          	mov    -0x20(%rsp),%eax
  4013f7:	69 c0 7c ba 00 00    	imul   $0xba7c,%eax,%eax
  4013fd:	89 44 24 e0          	mov    %eax,-0x20(%rsp)
  401401:	8b 44 24 f4          	mov    -0xc(%rsp),%eax
  401405:	69 c0 78 ae 00 00    	imul   $0xae78,%eax,%eax
  40140b:	89 44 24 f4          	mov    %eax,-0xc(%rsp)
  40140f:	8b 44 24 dc          	mov    -0x24(%rsp),%eax
  401413:	69 c0 1f c9 00 00    	imul   $0xc91f,%eax,%eax
  401419:	89 44 24 dc          	mov    %eax,-0x24(%rsp)
  40141d:	8b 44 24 f0          	mov    -0x10(%rsp),%eax
  401421:	69 c0 fa bc 00 00    	imul   $0xbcfa,%eax,%eax
  401427:	89 44 24 f0          	mov    %eax,-0x10(%rsp)
  40142b:	8b 44 24 f0          	mov    -0x10(%rsp),%eax
  40142f:	69 c0 92 0b 00 00    	imul   $0xb92,%eax,%eax
  401435:	89 44 24 f0          	mov    %eax,-0x10(%rsp)
  401439:	8b 44 24 e8          	mov    -0x18(%rsp),%eax
  40143d:	69 c0 f1 49 00 00    	imul   $0x49f1,%eax,%eax
  401443:	89 44 24 e8          	mov    %eax,-0x18(%rsp)
  401447:	8b 44 24 ec          	mov    -0x14(%rsp),%eax
  40144b:	69 c0 51 ed 00 00    	imul   $0xed51,%eax,%eax
  401451:	89 44 24 ec          	mov    %eax,-0x14(%rsp)
  401455:	8b 44 24 d0          	mov    -0x30(%rsp),%eax
  401459:	69 c0 26 b8 00 00    	imul   $0xb826,%eax,%eax
  40145f:	89 44 24 d0          	mov    %eax,-0x30(%rsp)
  401463:	8b 44 24 ec          	mov    -0x14(%rsp),%eax
  401467:	69 c0 84 b7 00 00    	imul   $0xb784,%eax,%eax
  40146d:	89 44 24 ec          	mov    %eax,-0x14(%rsp)
  401471:	8b 44 24 e8          	mov    -0x18(%rsp),%eax
  401475:	69 c0 6b 8c 00 00    	imul   $0x8c6b,%eax,%eax
  40147b:	89 44 24 e8          	mov    %eax,-0x18(%rsp)
  40147f:	8b 44 24 d8          	mov    -0x28(%rsp),%eax
  401483:	69 c0 45 65 00 00    	imul   $0x6545,%eax,%eax
  401489:	89 44 24 d8          	mov    %eax,-0x28(%rsp)
  40148d:	8b 44 24 dc          	mov    -0x24(%rsp),%eax
  401491:	69 c0 84 0e 00 00    	imul   $0xe84,%eax,%eax
  401497:	89 44 24 dc          	mov    %eax,-0x24(%rsp)
  40149b:	8b 44 24 d0          	mov    -0x30(%rsp),%eax
  40149f:	69 c0 d3 98 00 00    	imul   $0x98d3,%eax,%eax
  4014a5:	89 44 24 d0          	mov    %eax,-0x30(%rsp)
  4014a9:	8b 44 24 f0          	mov    -0x10(%rsp),%eax
  4014ad:	69 c0 47 12 00 00    	imul   $0x1247,%eax,%eax
  4014b3:	89 44 24 f0          	mov    %eax,-0x10(%rsp)
  4014b7:	8b 44 24 d0          	mov    -0x30(%rsp),%eax
  4014bb:	69 c0 ac f9 00 00    	imul   $0xf9ac,%eax,%eax
  4014c1:	89 44 24 d0          	mov    %eax,-0x30(%rsp)
  4014c5:	8b 44 24 ec          	mov    -0x14(%rsp),%eax
  4014c9:	69 c0 a0 4d 00 00    	imul   $0x4da0,%eax,%eax
  4014cf:	89 44 24 ec          	mov    %eax,-0x14(%rsp)
  4014d3:	8b 44 24 f4          	mov    -0xc(%rsp),%eax
  4014d7:	69 c0 a6 bd 00 00    	imul   $0xbda6,%eax,%eax
  4014dd:	89 44 24 f4          	mov    %eax,-0xc(%rsp)
  4014e1:	8b 44 24 ec          	mov    -0x14(%rsp),%eax
  4014e5:	69 c0 e6 0a 00 00    	imul   $0xae6,%eax,%eax
  4014eb:	89 44 24 ec          	mov    %eax,-0x14(%rsp)
  4014ef:	8b 44 24 d0          	mov    -0x30(%rsp),%eax
  4014f3:	69 c0 f8 e5 00 00    	imul   $0xe5f8,%eax,%eax
  4014f9:	89 44 24 d0          	mov    %eax,-0x30(%rsp)
  4014fd:	8b 44 24 e8          	mov    -0x18(%rsp),%eax
  401501:	69 c0 a1 45 00 00    	imul   $0x45a1,%eax,%eax
  401507:	89 44 24 e8          	mov    %eax,-0x18(%rsp)
  40150b:	8b 44 24 f0          	mov    -0x10(%rsp),%eax
  40150f:	69 c0 76 e1 00 00    	imul   $0xe176,%eax,%eax
  401515:	89 44 24 f0          	mov    %eax,-0x10(%rsp)
  401519:	8b 44 24 f4          	mov    -0xc(%rsp),%eax
  40151d:	69 c0 5c ea 00 00    	imul   $0xea5c,%eax,%eax
  401523:	89 44 24 f4          	mov    %eax,-0xc(%rsp)
  401527:	8b 44 24 e8          	mov    -0x18(%rsp),%eax
  40152b:	69 c0 33 c7 00 00    	imul   $0xc733,%eax,%eax
  401531:	89 44 24 e8          	mov    %eax,-0x18(%rsp)
  401535:	8b 44 24 f4          	mov    -0xc(%rsp),%eax
  401539:	69 c0 15 f6 00 00    	imul   $0xf615,%eax,%eax
  40153f:	89 44 24 f4          	mov    %eax,-0xc(%rsp)
  401543:	8b 44 24 e8          	mov    -0x18(%rsp),%eax
  401547:	69 c0 25 81 00 00    	imul   $0x8125,%eax,%eax
  40154d:	89 44 24 e8          	mov    %eax,-0x18(%rsp)
  401551:	8b 44 24 d8          	mov    -0x28(%rsp),%eax
  401555:	69 c0 59 92 00 00    	imul   $0x9259,%eax,%eax
  40155b:	89 44 24 d8          	mov    %eax,-0x28(%rsp)
  40155f:	8b 44 24 dc          	mov    -0x24(%rsp),%eax
  401563:	69 c0 69 b1 00 00    	imul   $0xb169,%eax,%eax
  401569:	89 44 24 dc          	mov    %eax,-0x24(%rsp)
  40156d:	8b 44 24 f0          	mov    -0x10(%rsp),%eax
  401571:	69 c0 4a 79 00 00    	imul   $0x794a,%eax,%eax
  401577:	89 44 24 f0          	mov    %eax,-0x10(%rsp)
  40157b:	8b 44 24 e4          	mov    -0x1c(%rsp),%eax
  40157f:	69 c0 3f ae 00 00    	imul   $0xae3f,%eax,%eax
  401585:	89 44 24 e4          	mov    %eax,-0x1c(%rsp)
  401589:	8b 44 24 d8          	mov    -0x28(%rsp),%eax
  40158d:	69 c0 5e f1 00 00    	imul   $0xf15e,%eax,%eax
  401593:	89 44 24 d8          	mov    %eax,-0x28(%rsp)
  401597:	8b 44 24 f0          	mov    -0x10(%rsp),%eax
  40159b:	69 c0 47 55 00 00    	imul   $0x5547,%eax,%eax
  4015a1:	89 44 24 f0          	mov    %eax,-0x10(%rsp)
  4015a5:	8b 44 24 d4          	mov    -0x2c(%rsp),%eax
  4015a9:	69 c0 15 5c 00 00    	imul   $0x5c15,%eax,%eax
  4015af:	89 44 24 d4          	mov    %eax,-0x2c(%rsp)
  4015b3:	8b 44 24 e4          	mov    -0x1c(%rsp),%eax
  4015b7:	69 c0 17 3b 00 00    	imul   $0x3b17,%eax,%eax
  4015bd:	89 44 24 e4          	mov    %eax,-0x1c(%rsp)
  4015c1:	8b 44 24 dc          	mov    -0x24(%rsp),%eax
  4015c5:	69 c0 b2 99 00 00    	imul   $0x99b2,%eax,%eax
  4015cb:	89 44 24 dc          	mov    %eax,-0x24(%rsp)
  4015cf:	8b 44 24 e4          	mov    -0x1c(%rsp),%eax
  4015d3:	69 c0 dc 2e 00 00    	imul   $0x2edc,%eax,%eax
  4015d9:	89 44 24 e4          	mov    %eax,-0x1c(%rsp)
  4015dd:	8b 44 24 e8          	mov    -0x18(%rsp),%eax
  4015e1:	69 c0 99 12 00 00    	imul   $0x1299,%eax,%eax
  4015e7:	89 44 24 e8          	mov    %eax,-0x18(%rsp)
  4015eb:	8b 44 24 e4          	mov    -0x1c(%rsp),%eax
  4015ef:	69 c0 e5 6e 00 00    	imul   $0x6ee5,%eax,%eax
  4015f5:	89 44 24 e4          	mov    %eax,-0x1c(%rsp)
  4015f9:	8b 44 24 d8          	mov    -0x28(%rsp),%eax
  4015fd:	69 c0 1a df 00 00    	imul   $0xdf1a,%eax,%eax
  401603:	89 44 24 d8          	mov    %eax,-0x28(%rsp)
  401607:	8b 44 24 f4          	mov    -0xc(%rsp),%eax
  40160b:	69 c0 77 9f 00 00    	imul   $0x9f77,%eax,%eax
  401611:	89 44 24 f4          	mov    %eax,-0xc(%rsp)
  401615:	8b 44 24 f4          	mov    -0xc(%rsp),%eax
  401619:	69 c0 cf b4 00 00    	imul   $0xb4cf,%eax,%eax
  40161f:	89 44 24 f4          	mov    %eax,-0xc(%rsp)
  401623:	8b 44 24 f0          	mov    -0x10(%rsp),%eax
  401627:	69 c0 b0 57 00 00    	imul   $0x57b0,%eax,%eax
  40162d:	89 44 24 f0          	mov    %eax,-0x10(%rsp)
  401631:	8b 44 24 f4          	mov    -0xc(%rsp),%eax
  401635:	69 c0 07 07 00 00    	imul   $0x707,%eax,%eax
  40163b:	89 44 24 f4          	mov    %eax,-0xc(%rsp)
  40163f:	8b 44 24 d4          	mov    -0x2c(%rsp),%eax
  401643:	69 c0 05 e8 00 00    	imul   $0xe805,%eax,%eax
  401649:	89 44 24 d4          	mov    %eax,-0x2c(%rsp)
  40164d:	8b 44 24 ec          	mov    -0x14(%rsp),%eax
  401651:	69 c0 55 53 00 00    	imul   $0x5355,%eax,%eax
  401657:	89 44 24 ec          	mov    %eax,-0x14(%rsp)
  40165b:	8b 44 24 ec          	mov    -0x14(%rsp),%eax
  40165f:	69 c0 e2 0b 00 00    	imul   $0xbe2,%eax,%eax
  401665:	89 44 24 ec          	mov    %eax,-0x14(%rsp)
  401669:	8b 44 24 dc          	mov    -0x24(%rsp),%eax
  40166d:	69 c0 31 3e 00 00    	imul   $0x3e31,%eax,%eax
  401673:	89 44 24 dc          	mov    %eax,-0x24(%rsp)
  401677:	8b 44 24 d8          	mov    -0x28(%rsp),%eax
  40167b:	69 c0 b1 83 00 00    	imul   $0x83b1,%eax,%eax
  401681:	89 44 24 d8          	mov    %eax,-0x28(%rsp)
  401685:	8b 44 24 e4          	mov    -0x1c(%rsp),%eax
  401689:	69 c0 16 74 00 00    	imul   $0x7416,%eax,%eax
  40168f:	89 44 24 e4          	mov    %eax,-0x1c(%rsp)
  401693:	8b 44 24 d8          	mov    -0x28(%rsp),%eax
  401697:	69 c0 41 01 00 00    	imul   $0x141,%eax,%eax
  40169d:	89 44 24 d8          	mov    %eax,-0x28(%rsp)
  4016a1:	8b 44 24 ec          	mov    -0x14(%rsp),%eax
  4016a5:	69 c0 d8 df 00 00    	imul   $0xdfd8,%eax,%eax
  4016ab:	89 44 24 ec          	mov    %eax,-0x14(%rsp)
  4016af:	8b 44 24 d8          	mov    -0x28(%rsp),%eax
  4016b3:	69 c0 1b ed 00 00    	imul   $0xed1b,%eax,%eax
  4016b9:	89 44 24 d8          	mov    %eax,-0x28(%rsp)
  4016bd:	8b 44 24 e0          	mov    -0x20(%rsp),%eax
  4016c1:	69 c0 70 40 00 00    	imul   $0x4070,%eax,%eax
  4016c7:	89 44 24 e0          	mov    %eax,-0x20(%rsp)
  4016cb:	8b 44 24 d8          	mov    -0x28(%rsp),%eax
  4016cf:	69 c0 67 ef 00 00    	imul   $0xef67,%eax,%eax
  4016d5:	89 44 24 d8          	mov    %eax,-0x28(%rsp)
  4016d9:	8b 44 24 dc          	mov    -0x24(%rsp),%eax
  4016dd:	69 c0 18 92 00 00    	imul   $0x9218,%eax,%eax
  4016e3:	89 44 24 dc          	mov    %eax,-0x24(%rsp)
  4016e7:	8b 44 24 f4          	mov    -0xc(%rsp),%eax
  4016eb:	69 c0 b9 f4 00 00    	imul   $0xf4b9,%eax,%eax
  4016f1:	89 44 24 f4          	mov    %eax,-0xc(%rsp)
  4016f5:	ba 00 00 00 00       	mov    $0x0,%edx
  4016fa:	b8 00 00 00 00       	mov    $0x0,%eax
  4016ff:	eb 0b                	jmp    40170c <scramble+0x52e>
  401701:	89 d1                	mov    %edx,%ecx
  401703:	8b 4c 8c d0          	mov    -0x30(%rsp,%rcx,4),%ecx
  401707:	01 c8                	add    %ecx,%eax
  401709:	83 c2 01             	add    $0x1,%edx
  40170c:	83 fa 09             	cmp    $0x9,%edx
  40170f:	76 f0                	jbe    401701 <scramble+0x523>
  401711:	f3 c3                	repz retq 

0000000000401713 <getbuf>:
  401713:	48 83 ec 38          	sub    $0x38,%rsp
  401717:	48 89 e7             	mov    %rsp,%rdi
  40171a:	e8 3b 02 00 00       	callq  40195a <Gets>
  40171f:	b8 01 00 00 00       	mov    $0x1,%eax
  401724:	48 83 c4 38          	add    $0x38,%rsp
  401728:	c3                   	retq   

0000000000401729 <touch1>:
  401729:	48 83 ec 08          	sub    $0x8,%rsp
  40172d:	c7 05 a5 2d 20 00 01 	movl   $0x1,0x202da5(%rip)        # 6044dc <vlevel>
  401734:	00 00 00 
  401737:	bf 75 2e 40 00       	mov    $0x402e75,%edi
  40173c:	e8 9f f4 ff ff       	callq  400be0 <puts@plt>
  401741:	bf 01 00 00 00       	mov    $0x1,%edi
  401746:	e8 fe 03 00 00       	callq  401b49 <validate>
  40174b:	bf 00 00 00 00       	mov    $0x0,%edi
  401750:	e8 1b f6 ff ff       	callq  400d70 <exit@plt>

0000000000401755 <touch2>:
  401755:	48 83 ec 08          	sub    $0x8,%rsp
  401759:	89 fe                	mov    %edi,%esi
  40175b:	c7 05 77 2d 20 00 02 	movl   $0x2,0x202d77(%rip)        # 6044dc <vlevel>
  401762:	00 00 00 
  401765:	3b 3d 79 2d 20 00    	cmp    0x202d79(%rip),%edi        # 6044e4 <cookie>
  40176b:	75 1b                	jne    401788 <touch2+0x33>
  40176d:	bf 98 2e 40 00       	mov    $0x402e98,%edi
  401772:	b8 00 00 00 00       	mov    $0x0,%eax
  401777:	e8 94 f4 ff ff       	callq  400c10 <printf@plt>
  40177c:	bf 02 00 00 00       	mov    $0x2,%edi
  401781:	e8 c3 03 00 00       	callq  401b49 <validate>
  401786:	eb 19                	jmp    4017a1 <touch2+0x4c>
  401788:	bf c0 2e 40 00       	mov    $0x402ec0,%edi
  40178d:	b8 00 00 00 00       	mov    $0x0,%eax
  401792:	e8 79 f4 ff ff       	callq  400c10 <printf@plt>
  401797:	bf 02 00 00 00       	mov    $0x2,%edi
  40179c:	e8 5a 04 00 00       	callq  401bfb <fail>
  4017a1:	bf 00 00 00 00       	mov    $0x0,%edi
  4017a6:	e8 c5 f5 ff ff       	callq  400d70 <exit@plt>

00000000004017ab <hexmatch>:
  4017ab:	41 54                	push   %r12
  4017ad:	55                   	push   %rbp
  4017ae:	53                   	push   %rbx
  4017af:	48 83 ec 70          	sub    $0x70,%rsp
  4017b3:	41 89 fc             	mov    %edi,%r12d
  4017b6:	48 89 f5             	mov    %rsi,%rbp
  4017b9:	e8 12 f5 ff ff       	callq  400cd0 <random@plt>
  4017be:	48 89 c1             	mov    %rax,%rcx
  4017c1:	48 ba 0b d7 a3 70 3d 	movabs $0xa3d70a3d70a3d70b,%rdx
  4017c8:	0a d7 a3 
  4017cb:	48 f7 ea             	imul   %rdx
  4017ce:	48 8d 04 0a          	lea    (%rdx,%rcx,1),%rax
  4017d2:	48 c1 f8 06          	sar    $0x6,%rax
  4017d6:	48 89 ce             	mov    %rcx,%rsi
  4017d9:	48 c1 fe 3f          	sar    $0x3f,%rsi
  4017dd:	48 29 f0             	sub    %rsi,%rax
  4017e0:	48 8d 04 80          	lea    (%rax,%rax,4),%rax
  4017e4:	48 8d 04 80          	lea    (%rax,%rax,4),%rax
  4017e8:	48 c1 e0 02          	shl    $0x2,%rax
  4017ec:	48 29 c1             	sub    %rax,%rcx
  4017ef:	48 8d 1c 0c          	lea    (%rsp,%rcx,1),%rbx
  4017f3:	44 89 e2             	mov    %r12d,%edx
  4017f6:	be 92 2e 40 00       	mov    $0x402e92,%esi
  4017fb:	48 89 df             	mov    %rbx,%rdi
  4017fe:	b8 00 00 00 00       	mov    $0x0,%eax
  401803:	e8 58 f5 ff ff       	callq  400d60 <sprintf@plt>
  401808:	ba 09 00 00 00       	mov    $0x9,%edx
  40180d:	48 89 de             	mov    %rbx,%rsi
  401810:	48 89 ef             	mov    %rbp,%rdi
  401813:	e8 a8 f3 ff ff       	callq  400bc0 <strncmp@plt>
  401818:	85 c0                	test   %eax,%eax
  40181a:	0f 94 c0             	sete   %al
  40181d:	0f b6 c0             	movzbl %al,%eax
  401820:	48 83 c4 70          	add    $0x70,%rsp
  401824:	5b                   	pop    %rbx
  401825:	5d                   	pop    %rbp
  401826:	41 5c                	pop    %r12
  401828:	c3                   	retq   

0000000000401829 <touch3>:
  401829:	53                   	push   %rbx
  40182a:	48 89 fb             	mov    %rdi,%rbx
  40182d:	c7 05 a5 2c 20 00 03 	movl   $0x3,0x202ca5(%rip)        # 6044dc <vlevel>
  401834:	00 00 00 
  401837:	48 89 fe             	mov    %rdi,%rsi
  40183a:	8b 3d a4 2c 20 00    	mov    0x202ca4(%rip),%edi        # 6044e4 <cookie>
  401840:	e8 66 ff ff ff       	callq  4017ab <hexmatch>
  401845:	85 c0                	test   %eax,%eax
  401847:	74 1e                	je     401867 <touch3+0x3e>
  401849:	48 89 de             	mov    %rbx,%rsi
  40184c:	bf e8 2e 40 00       	mov    $0x402ee8,%edi
  401851:	b8 00 00 00 00       	mov    $0x0,%eax
  401856:	e8 b5 f3 ff ff       	callq  400c10 <printf@plt>
  40185b:	bf 03 00 00 00       	mov    $0x3,%edi
  401860:	e8 e4 02 00 00       	callq  401b49 <validate>
  401865:	eb 1c                	jmp    401883 <touch3+0x5a>
  401867:	48 89 de             	mov    %rbx,%rsi
  40186a:	bf 10 2f 40 00       	mov    $0x402f10,%edi
  40186f:	b8 00 00 00 00       	mov    $0x0,%eax
  401874:	e8 97 f3 ff ff       	callq  400c10 <printf@plt>
  401879:	bf 03 00 00 00       	mov    $0x3,%edi
  40187e:	e8 78 03 00 00       	callq  401bfb <fail>
  401883:	bf 00 00 00 00       	mov    $0x0,%edi
  401888:	e8 e3 f4 ff ff       	callq  400d70 <exit@plt>

000000000040188d <test>:
  40188d:	48 83 ec 08          	sub    $0x8,%rsp
  401891:	b8 00 00 00 00       	mov    $0x0,%eax
  401896:	e8 78 fe ff ff       	callq  401713 <getbuf>
  40189b:	89 c6                	mov    %eax,%esi
  40189d:	bf 38 2f 40 00       	mov    $0x402f38,%edi
  4018a2:	b8 00 00 00 00       	mov    $0x0,%eax
  4018a7:	e8 64 f3 ff ff       	callq  400c10 <printf@plt>
  4018ac:	48 83 c4 08          	add    $0x8,%rsp
  4018b0:	c3                   	retq   
  4018b1:	66 2e 0f 1f 84 00 00 	nopw   %cs:0x0(%rax,%rax,1)
  4018b8:	00 00 00 
  4018bb:	0f 1f 44 00 00       	nopl   0x0(%rax,%rax,1)

00000000004018c0 <save_char>:
  4018c0:	8b 05 3e 38 20 00    	mov    0x20383e(%rip),%eax        # 605104 <gets_cnt>
  4018c6:	3d ff 03 00 00       	cmp    $0x3ff,%eax
  4018cb:	7f 49                	jg     401916 <save_char+0x56>
  4018cd:	8d 14 40             	lea    (%rax,%rax,2),%edx
  4018d0:	89 f9                	mov    %edi,%ecx
  4018d2:	c0 e9 04             	shr    $0x4,%cl
  4018d5:	83 e1 0f             	and    $0xf,%ecx
  4018d8:	0f b6 b1 60 32 40 00 	movzbl 0x403260(%rcx),%esi
  4018df:	48 63 ca             	movslq %edx,%rcx
  4018e2:	40 88 b1 00 45 60 00 	mov    %sil,0x604500(%rcx)
  4018e9:	8d 4a 01             	lea    0x1(%rdx),%ecx
  4018ec:	83 e7 0f             	and    $0xf,%edi
  4018ef:	0f b6 b7 60 32 40 00 	movzbl 0x403260(%rdi),%esi
  4018f6:	48 63 c9             	movslq %ecx,%rcx
  4018f9:	40 88 b1 00 45 60 00 	mov    %sil,0x604500(%rcx)
  401900:	83 c2 02             	add    $0x2,%edx
  401903:	48 63 d2             	movslq %edx,%rdx
  401906:	c6 82 00 45 60 00 20 	movb   $0x20,0x604500(%rdx)
  40190d:	83 c0 01             	add    $0x1,%eax
  401910:	89 05 ee 37 20 00    	mov    %eax,0x2037ee(%rip)        # 605104 <gets_cnt>
  401916:	f3 c3                	repz retq 

0000000000401918 <save_term>:
  401918:	8b 05 e6 37 20 00    	mov    0x2037e6(%rip),%eax        # 605104 <gets_cnt>
  40191e:	8d 04 40             	lea    (%rax,%rax,2),%eax
  401921:	48 98                	cltq   
  401923:	c6 80 00 45 60 00 00 	movb   $0x0,0x604500(%rax)
  40192a:	c3                   	retq   

000000000040192b <check_fail>:
  40192b:	48 83 ec 08          	sub    $0x8,%rsp
  40192f:	0f be 35 d2 37 20 00 	movsbl 0x2037d2(%rip),%esi        # 605108 <target_prefix>
  401936:	b9 00 45 60 00       	mov    $0x604500,%ecx
  40193b:	8b 15 97 2b 20 00    	mov    0x202b97(%rip),%edx        # 6044d8 <check_level>
  401941:	bf 5b 2f 40 00       	mov    $0x402f5b,%edi
  401946:	b8 00 00 00 00       	mov    $0x0,%eax
  40194b:	e8 c0 f2 ff ff       	callq  400c10 <printf@plt>
  401950:	bf 01 00 00 00       	mov    $0x1,%edi
  401955:	e8 16 f4 ff ff       	callq  400d70 <exit@plt>

000000000040195a <Gets>:
  40195a:	41 54                	push   %r12
  40195c:	55                   	push   %rbp
  40195d:	53                   	push   %rbx
  40195e:	49 89 fc             	mov    %rdi,%r12
  401961:	c7 05 99 37 20 00 00 	movl   $0x0,0x203799(%rip)        # 605104 <gets_cnt>
  401968:	00 00 00 
  40196b:	48 89 fb             	mov    %rdi,%rbx
  40196e:	eb 11                	jmp    401981 <Gets+0x27>
  401970:	48 8d 6b 01          	lea    0x1(%rbx),%rbp
  401974:	88 03                	mov    %al,(%rbx)
  401976:	0f b6 f8             	movzbl %al,%edi
  401979:	e8 42 ff ff ff       	callq  4018c0 <save_char>
  40197e:	48 89 eb             	mov    %rbp,%rbx
  401981:	48 8b 3d 48 2b 20 00 	mov    0x202b48(%rip),%rdi        # 6044d0 <infile>
  401988:	e8 53 f3 ff ff       	callq  400ce0 <_IO_getc@plt>
  40198d:	83 f8 ff             	cmp    $0xffffffff,%eax
  401990:	74 05                	je     401997 <Gets+0x3d>
  401992:	83 f8 0a             	cmp    $0xa,%eax
  401995:	75 d9                	jne    401970 <Gets+0x16>
  401997:	c6 03 00             	movb   $0x0,(%rbx)
  40199a:	b8 00 00 00 00       	mov    $0x0,%eax
  40199f:	e8 74 ff ff ff       	callq  401918 <save_term>
  4019a4:	4c 89 e0             	mov    %r12,%rax
  4019a7:	5b                   	pop    %rbx
  4019a8:	5d                   	pop    %rbp
  4019a9:	41 5c                	pop    %r12
  4019ab:	c3                   	retq   

00000000004019ac <notify_server>:
  4019ac:	83 3d 35 2b 20 00 00 	cmpl   $0x0,0x202b35(%rip)        # 6044e8 <is_checker>
  4019b3:	0f 85 8e 01 00 00    	jne    401b47 <notify_server+0x19b>
  4019b9:	53                   	push   %rbx
  4019ba:	48 81 ec 10 40 00 00 	sub    $0x4010,%rsp
  4019c1:	89 fb                	mov    %edi,%ebx
  4019c3:	8b 05 3b 37 20 00    	mov    0x20373b(%rip),%eax        # 605104 <gets_cnt>
  4019c9:	83 c0 64             	add    $0x64,%eax
  4019cc:	3d 00 20 00 00       	cmp    $0x2000,%eax
  4019d1:	7e 19                	jle    4019ec <notify_server+0x40>
  4019d3:	bf 90 30 40 00       	mov    $0x403090,%edi
  4019d8:	b8 00 00 00 00       	mov    $0x0,%eax
  4019dd:	e8 2e f2 ff ff       	callq  400c10 <printf@plt>
  4019e2:	bf 01 00 00 00       	mov    $0x1,%edi
  4019e7:	e8 84 f3 ff ff       	callq  400d70 <exit@plt>
  4019ec:	44 0f be 0d 14 37 20 	movsbl 0x203714(%rip),%r9d        # 605108 <target_prefix>
  4019f3:	00 
  4019f4:	83 3d 8d 2a 20 00 00 	cmpl   $0x0,0x202a8d(%rip)        # 604488 <notify>
  4019fb:	74 09                	je     401a06 <notify_server+0x5a>
  4019fd:	44 8b 05 dc 2a 20 00 	mov    0x202adc(%rip),%r8d        # 6044e0 <authkey>
  401a04:	eb 06                	jmp    401a0c <notify_server+0x60>
  401a06:	41 b8 ff ff ff ff    	mov    $0xffffffff,%r8d
  401a0c:	85 db                	test   %ebx,%ebx
  401a0e:	74 07                	je     401a17 <notify_server+0x6b>
  401a10:	b9 71 2f 40 00       	mov    $0x402f71,%ecx
  401a15:	eb 05                	jmp    401a1c <notify_server+0x70>
  401a17:	b9 76 2f 40 00       	mov    $0x402f76,%ecx
  401a1c:	48 c7 44 24 08 00 45 	movq   $0x604500,0x8(%rsp)
  401a23:	60 00 
  401a25:	89 34 24             	mov    %esi,(%rsp)
  401a28:	8b 15 1a 27 20 00    	mov    0x20271a(%rip),%edx        # 604148 <target_id>
  401a2e:	be 7b 2f 40 00       	mov    $0x402f7b,%esi
  401a33:	48 8d bc 24 10 20 00 	lea    0x2010(%rsp),%rdi
  401a3a:	00 
  401a3b:	b8 00 00 00 00       	mov    $0x0,%eax
  401a40:	e8 1b f3 ff ff       	callq  400d60 <sprintf@plt>
  401a45:	83 3d 3c 2a 20 00 00 	cmpl   $0x0,0x202a3c(%rip)        # 604488 <notify>
  401a4c:	74 78                	je     401ac6 <notify_server+0x11a>
  401a4e:	85 db                	test   %ebx,%ebx
  401a50:	74 68                	je     401aba <notify_server+0x10e>
  401a52:	4c 8d 4c 24 10       	lea    0x10(%rsp),%r9
  401a57:	41 b8 00 00 00 00    	mov    $0x0,%r8d
  401a5d:	48 8d 8c 24 10 20 00 	lea    0x2010(%rsp),%rcx
  401a64:	00 
  401a65:	48 8b 15 e4 26 20 00 	mov    0x2026e4(%rip),%rdx        # 604150 <lab>
  401a6c:	48 8b 35 e5 26 20 00 	mov    0x2026e5(%rip),%rsi        # 604158 <course>
  401a73:	48 8b 3d c6 26 20 00 	mov    0x2026c6(%rip),%rdi        # 604140 <user_id>
  401a7a:	e8 94 0f 00 00       	callq  402a13 <driver_post>
  401a7f:	85 c0                	test   %eax,%eax
  401a81:	79 1e                	jns    401aa1 <notify_server+0xf5>
  401a83:	48 8d 74 24 10       	lea    0x10(%rsp),%rsi
  401a88:	bf 97 2f 40 00       	mov    $0x402f97,%edi
  401a8d:	b8 00 00 00 00       	mov    $0x0,%eax
  401a92:	e8 79 f1 ff ff       	callq  400c10 <printf@plt>
  401a97:	bf 01 00 00 00       	mov    $0x1,%edi
  401a9c:	e8 cf f2 ff ff       	callq  400d70 <exit@plt>
  401aa1:	bf c0 30 40 00       	mov    $0x4030c0,%edi
  401aa6:	e8 35 f1 ff ff       	callq  400be0 <puts@plt>
  401aab:	bf a3 2f 40 00       	mov    $0x402fa3,%edi
  401ab0:	e8 2b f1 ff ff       	callq  400be0 <puts@plt>
  401ab5:	e9 85 00 00 00       	jmpq   401b3f <notify_server+0x193>
  401aba:	bf ad 2f 40 00       	mov    $0x402fad,%edi
  401abf:	e8 1c f1 ff ff       	callq  400be0 <puts@plt>
  401ac4:	eb 79                	jmp    401b3f <notify_server+0x193>
  401ac6:	85 db                	test   %ebx,%ebx
  401ac8:	74 08                	je     401ad2 <notify_server+0x126>
  401aca:	be 71 2f 40 00       	mov    $0x402f71,%esi
  401acf:	90                   	nop
  401ad0:	eb 05                	jmp    401ad7 <notify_server+0x12b>
  401ad2:	be 76 2f 40 00       	mov    $0x402f76,%esi
  401ad7:	bf f8 30 40 00       	mov    $0x4030f8,%edi
  401adc:	b8 00 00 00 00       	mov    $0x0,%eax
  401ae1:	e8 2a f1 ff ff       	callq  400c10 <printf@plt>
  401ae6:	48 8b 35 53 26 20 00 	mov    0x202653(%rip),%rsi        # 604140 <user_id>
  401aed:	bf b4 2f 40 00       	mov    $0x402fb4,%edi
  401af2:	b8 00 00 00 00       	mov    $0x0,%eax
  401af7:	e8 14 f1 ff ff       	callq  400c10 <printf@plt>
  401afc:	48 8b 35 55 26 20 00 	mov    0x202655(%rip),%rsi        # 604158 <course>
  401b03:	bf c1 2f 40 00       	mov    $0x402fc1,%edi
  401b08:	b8 00 00 00 00       	mov    $0x0,%eax
  401b0d:	e8 fe f0 ff ff       	callq  400c10 <printf@plt>
  401b12:	48 8b 35 37 26 20 00 	mov    0x202637(%rip),%rsi        # 604150 <lab>
  401b19:	bf cd 2f 40 00       	mov    $0x402fcd,%edi
  401b1e:	b8 00 00 00 00       	mov    $0x0,%eax
  401b23:	e8 e8 f0 ff ff       	callq  400c10 <printf@plt>
  401b28:	48 8d b4 24 10 20 00 	lea    0x2010(%rsp),%rsi
  401b2f:	00 
  401b30:	bf d6 2f 40 00       	mov    $0x402fd6,%edi
  401b35:	b8 00 00 00 00       	mov    $0x0,%eax
  401b3a:	e8 d1 f0 ff ff       	callq  400c10 <printf@plt>
  401b3f:	48 81 c4 10 40 00 00 	add    $0x4010,%rsp
  401b46:	5b                   	pop    %rbx
  401b47:	f3 c3                	repz retq 

0000000000401b49 <validate>:
  401b49:	53                   	push   %rbx
  401b4a:	89 fb                	mov    %edi,%ebx
  401b4c:	83 3d 95 29 20 00 00 	cmpl   $0x0,0x202995(%rip)        # 6044e8 <is_checker>
  401b53:	74 60                	je     401bb5 <validate+0x6c>
  401b55:	39 3d 81 29 20 00    	cmp    %edi,0x202981(%rip)        # 6044dc <vlevel>
  401b5b:	74 14                	je     401b71 <validate+0x28>
  401b5d:	bf e2 2f 40 00       	mov    $0x402fe2,%edi
  401b62:	e8 79 f0 ff ff       	callq  400be0 <puts@plt>
  401b67:	b8 00 00 00 00       	mov    $0x0,%eax
  401b6c:	e8 ba fd ff ff       	callq  40192b <check_fail>
  401b71:	8b 35 61 29 20 00    	mov    0x202961(%rip),%esi        # 6044d8 <check_level>
  401b77:	39 fe                	cmp    %edi,%esi
  401b79:	74 1b                	je     401b96 <validate+0x4d>
  401b7b:	89 fa                	mov    %edi,%edx
  401b7d:	bf 20 31 40 00       	mov    $0x403120,%edi
  401b82:	b8 00 00 00 00       	mov    $0x0,%eax
  401b87:	e8 84 f0 ff ff       	callq  400c10 <printf@plt>
  401b8c:	b8 00 00 00 00       	mov    $0x0,%eax
  401b91:	e8 95 fd ff ff       	callq  40192b <check_fail>
  401b96:	0f be 35 6b 35 20 00 	movsbl 0x20356b(%rip),%esi        # 605108 <target_prefix>
  401b9d:	b9 00 45 60 00       	mov    $0x604500,%ecx
  401ba2:	89 fa                	mov    %edi,%edx
  401ba4:	bf 00 30 40 00       	mov    $0x403000,%edi
  401ba9:	b8 00 00 00 00       	mov    $0x0,%eax
  401bae:	e8 5d f0 ff ff       	callq  400c10 <printf@plt>
  401bb3:	eb 44                	jmp    401bf9 <validate+0xb0>
  401bb5:	39 3d 21 29 20 00    	cmp    %edi,0x202921(%rip)        # 6044dc <vlevel>
  401bbb:	74 18                	je     401bd5 <validate+0x8c>
  401bbd:	bf e2 2f 40 00       	mov    $0x402fe2,%edi
  401bc2:	e8 19 f0 ff ff       	callq  400be0 <puts@plt>
  401bc7:	89 de                	mov    %ebx,%esi
  401bc9:	bf 00 00 00 00       	mov    $0x0,%edi
  401bce:	e8 d9 fd ff ff       	callq  4019ac <notify_server>
  401bd3:	eb 24                	jmp    401bf9 <validate+0xb0>
  401bd5:	0f be 15 2c 35 20 00 	movsbl 0x20352c(%rip),%edx        # 605108 <target_prefix>
  401bdc:	89 fe                	mov    %edi,%esi
  401bde:	bf 48 31 40 00       	mov    $0x403148,%edi
  401be3:	b8 00 00 00 00       	mov    $0x0,%eax
  401be8:	e8 23 f0 ff ff       	callq  400c10 <printf@plt>
  401bed:	89 de                	mov    %ebx,%esi
  401bef:	bf 01 00 00 00       	mov    $0x1,%edi
  401bf4:	e8 b3 fd ff ff       	callq  4019ac <notify_server>
  401bf9:	5b                   	pop    %rbx
  401bfa:	c3                   	retq   

0000000000401bfb <fail>:
  401bfb:	48 83 ec 08          	sub    $0x8,%rsp
  401bff:	83 3d e2 28 20 00 00 	cmpl   $0x0,0x2028e2(%rip)        # 6044e8 <is_checker>
  401c06:	74 0a                	je     401c12 <fail+0x17>
  401c08:	b8 00 00 00 00       	mov    $0x0,%eax
  401c0d:	e8 19 fd ff ff       	callq  40192b <check_fail>
  401c12:	89 fe                	mov    %edi,%esi
  401c14:	bf 00 00 00 00       	mov    $0x0,%edi
  401c19:	e8 8e fd ff ff       	callq  4019ac <notify_server>
  401c1e:	48 83 c4 08          	add    $0x8,%rsp
  401c22:	c3                   	retq   

0000000000401c23 <bushandler>:
  401c23:	48 83 ec 08          	sub    $0x8,%rsp
  401c27:	83 3d ba 28 20 00 00 	cmpl   $0x0,0x2028ba(%rip)        # 6044e8 <is_checker>
  401c2e:	74 14                	je     401c44 <bushandler+0x21>
  401c30:	bf 15 30 40 00       	mov    $0x403015,%edi
  401c35:	e8 a6 ef ff ff       	callq  400be0 <puts@plt>
  401c3a:	b8 00 00 00 00       	mov    $0x0,%eax
  401c3f:	e8 e7 fc ff ff       	callq  40192b <check_fail>
  401c44:	bf 80 31 40 00       	mov    $0x403180,%edi
  401c49:	e8 92 ef ff ff       	callq  400be0 <puts@plt>
  401c4e:	bf 1f 30 40 00       	mov    $0x40301f,%edi
  401c53:	e8 88 ef ff ff       	callq  400be0 <puts@plt>
  401c58:	be 00 00 00 00       	mov    $0x0,%esi
  401c5d:	bf 00 00 00 00       	mov    $0x0,%edi
  401c62:	e8 45 fd ff ff       	callq  4019ac <notify_server>
  401c67:	bf 01 00 00 00       	mov    $0x1,%edi
  401c6c:	e8 ff f0 ff ff       	callq  400d70 <exit@plt>

0000000000401c71 <seghandler>:
  401c71:	48 83 ec 08          	sub    $0x8,%rsp
  401c75:	83 3d 6c 28 20 00 00 	cmpl   $0x0,0x20286c(%rip)        # 6044e8 <is_checker>
  401c7c:	74 14                	je     401c92 <seghandler+0x21>
  401c7e:	bf 35 30 40 00       	mov    $0x403035,%edi
  401c83:	e8 58 ef ff ff       	callq  400be0 <puts@plt>
  401c88:	b8 00 00 00 00       	mov    $0x0,%eax
  401c8d:	e8 99 fc ff ff       	callq  40192b <check_fail>
  401c92:	bf a0 31 40 00       	mov    $0x4031a0,%edi
  401c97:	e8 44 ef ff ff       	callq  400be0 <puts@plt>
  401c9c:	bf 1f 30 40 00       	mov    $0x40301f,%edi
  401ca1:	e8 3a ef ff ff       	callq  400be0 <puts@plt>
  401ca6:	be 00 00 00 00       	mov    $0x0,%esi
  401cab:	bf 00 00 00 00       	mov    $0x0,%edi
  401cb0:	e8 f7 fc ff ff       	callq  4019ac <notify_server>
  401cb5:	bf 01 00 00 00       	mov    $0x1,%edi
  401cba:	e8 b1 f0 ff ff       	callq  400d70 <exit@plt>

0000000000401cbf <illegalhandler>:
  401cbf:	48 83 ec 08          	sub    $0x8,%rsp
  401cc3:	83 3d 1e 28 20 00 00 	cmpl   $0x0,0x20281e(%rip)        # 6044e8 <is_checker>
  401cca:	74 14                	je     401ce0 <illegalhandler+0x21>
  401ccc:	bf 48 30 40 00       	mov    $0x403048,%edi
  401cd1:	e8 0a ef ff ff       	callq  400be0 <puts@plt>
  401cd6:	b8 00 00 00 00       	mov    $0x0,%eax
  401cdb:	e8 4b fc ff ff       	callq  40192b <check_fail>
  401ce0:	bf c8 31 40 00       	mov    $0x4031c8,%edi
  401ce5:	e8 f6 ee ff ff       	callq  400be0 <puts@plt>
  401cea:	bf 1f 30 40 00       	mov    $0x40301f,%edi
  401cef:	e8 ec ee ff ff       	callq  400be0 <puts@plt>
  401cf4:	be 00 00 00 00       	mov    $0x0,%esi
  401cf9:	bf 00 00 00 00       	mov    $0x0,%edi
  401cfe:	e8 a9 fc ff ff       	callq  4019ac <notify_server>
  401d03:	bf 01 00 00 00       	mov    $0x1,%edi
  401d08:	e8 63 f0 ff ff       	callq  400d70 <exit@plt>

0000000000401d0d <sigalrmhandler>:
  401d0d:	48 83 ec 08          	sub    $0x8,%rsp
  401d11:	83 3d d0 27 20 00 00 	cmpl   $0x0,0x2027d0(%rip)        # 6044e8 <is_checker>
  401d18:	74 14                	je     401d2e <sigalrmhandler+0x21>
  401d1a:	bf 5c 30 40 00       	mov    $0x40305c,%edi
  401d1f:	e8 bc ee ff ff       	callq  400be0 <puts@plt>
  401d24:	b8 00 00 00 00       	mov    $0x0,%eax
  401d29:	e8 fd fb ff ff       	callq  40192b <check_fail>
  401d2e:	be 05 00 00 00       	mov    $0x5,%esi
  401d33:	bf f8 31 40 00       	mov    $0x4031f8,%edi
  401d38:	b8 00 00 00 00       	mov    $0x0,%eax
  401d3d:	e8 ce ee ff ff       	callq  400c10 <printf@plt>
  401d42:	be 00 00 00 00       	mov    $0x0,%esi
  401d47:	bf 00 00 00 00       	mov    $0x0,%edi
  401d4c:	e8 5b fc ff ff       	callq  4019ac <notify_server>
  401d51:	bf 01 00 00 00       	mov    $0x1,%edi
  401d56:	e8 15 f0 ff ff       	callq  400d70 <exit@plt>

0000000000401d5b <launch>:
  401d5b:	55                   	push   %rbp
  401d5c:	48 89 e5             	mov    %rsp,%rbp
  401d5f:	48 89 fa             	mov    %rdi,%rdx
  401d62:	48 8d 47 1e          	lea    0x1e(%rdi),%rax
  401d66:	48 83 e0 f0          	and    $0xfffffffffffffff0,%rax
  401d6a:	48 29 c4             	sub    %rax,%rsp
  401d6d:	48 8d 7c 24 0f       	lea    0xf(%rsp),%rdi
  401d72:	48 83 e7 f0          	and    $0xfffffffffffffff0,%rdi
  401d76:	be f4 00 00 00       	mov    $0xf4,%esi
  401d7b:	e8 a0 ee ff ff       	callq  400c20 <memset@plt>
  401d80:	48 8b 05 19 27 20 00 	mov    0x202719(%rip),%rax        # 6044a0 <stdin@@GLIBC_2.2.5>
  401d87:	48 39 05 42 27 20 00 	cmp    %rax,0x202742(%rip)        # 6044d0 <infile>
  401d8e:	75 0f                	jne    401d9f <launch+0x44>
  401d90:	bf 64 30 40 00       	mov    $0x403064,%edi
  401d95:	b8 00 00 00 00       	mov    $0x0,%eax
  401d9a:	e8 71 ee ff ff       	callq  400c10 <printf@plt>
  401d9f:	c7 05 33 27 20 00 00 	movl   $0x0,0x202733(%rip)        # 6044dc <vlevel>
  401da6:	00 00 00 
  401da9:	b8 00 00 00 00       	mov    $0x0,%eax
  401dae:	e8 da fa ff ff       	callq  40188d <test>
  401db3:	83 3d 2e 27 20 00 00 	cmpl   $0x0,0x20272e(%rip)        # 6044e8 <is_checker>
  401dba:	74 14                	je     401dd0 <launch+0x75>
  401dbc:	bf 71 30 40 00       	mov    $0x403071,%edi
  401dc1:	e8 1a ee ff ff       	callq  400be0 <puts@plt>
  401dc6:	b8 00 00 00 00       	mov    $0x0,%eax
  401dcb:	e8 5b fb ff ff       	callq  40192b <check_fail>
  401dd0:	bf 7c 30 40 00       	mov    $0x40307c,%edi
  401dd5:	e8 06 ee ff ff       	callq  400be0 <puts@plt>
  401dda:	c9                   	leaveq 
  401ddb:	c3                   	retq   

0000000000401ddc <stable_launch>:
  401ddc:	53                   	push   %rbx
  401ddd:	48 89 3d e4 26 20 00 	mov    %rdi,0x2026e4(%rip)        # 6044c8 <global_offset>
  401de4:	41 b9 00 00 00 00    	mov    $0x0,%r9d
  401dea:	41 b8 00 00 00 00    	mov    $0x0,%r8d
  401df0:	b9 32 01 00 00       	mov    $0x132,%ecx
  401df5:	ba 07 00 00 00       	mov    $0x7,%edx
  401dfa:	be 00 00 10 00       	mov    $0x100000,%esi
  401dff:	bf 00 60 58 55       	mov    $0x55586000,%edi
  401e04:	e8 f7 ed ff ff       	callq  400c00 <mmap@plt>
  401e09:	48 89 c3             	mov    %rax,%rbx
  401e0c:	48 3d 00 60 58 55    	cmp    $0x55586000,%rax
  401e12:	74 32                	je     401e46 <stable_launch+0x6a>
  401e14:	be 00 00 10 00       	mov    $0x100000,%esi
  401e19:	48 89 c7             	mov    %rax,%rdi
  401e1c:	e8 df ee ff ff       	callq  400d00 <munmap@plt>
  401e21:	ba 00 60 58 55       	mov    $0x55586000,%edx
  401e26:	be 30 32 40 00       	mov    $0x403230,%esi
  401e2b:	48 8b 3d 7e 26 20 00 	mov    0x20267e(%rip),%rdi        # 6044b0 <stderr@@GLIBC_2.2.5>
  401e32:	b8 00 00 00 00       	mov    $0x0,%eax
  401e37:	e8 54 ee ff ff       	callq  400c90 <fprintf@plt>
  401e3c:	bf 01 00 00 00       	mov    $0x1,%edi
  401e41:	e8 2a ef ff ff       	callq  400d70 <exit@plt>
  401e46:	48 8d 90 f8 ff 0f 00 	lea    0xffff8(%rax),%rdx
  401e4d:	48 89 15 bc 32 20 00 	mov    %rdx,0x2032bc(%rip)        # 605110 <stack_top>
  401e54:	48 89 e0             	mov    %rsp,%rax
  401e57:	48 89 d4             	mov    %rdx,%rsp
  401e5a:	48 89 c2             	mov    %rax,%rdx
  401e5d:	48 89 15 5c 26 20 00 	mov    %rdx,0x20265c(%rip)        # 6044c0 <global_save_stack>
  401e64:	48 8b 3d 5d 26 20 00 	mov    0x20265d(%rip),%rdi        # 6044c8 <global_offset>
  401e6b:	e8 eb fe ff ff       	callq  401d5b <launch>
  401e70:	48 8b 05 49 26 20 00 	mov    0x202649(%rip),%rax        # 6044c0 <global_save_stack>
  401e77:	48 89 c4             	mov    %rax,%rsp
  401e7a:	be 00 00 10 00       	mov    $0x100000,%esi
  401e7f:	48 89 df             	mov    %rbx,%rdi
  401e82:	e8 79 ee ff ff       	callq  400d00 <munmap@plt>
  401e87:	5b                   	pop    %rbx
  401e88:	c3                   	retq   
  401e89:	0f 1f 80 00 00 00 00 	nopl   0x0(%rax)

0000000000401e90 <rio_readinitb>:
  401e90:	89 37                	mov    %esi,(%rdi)
  401e92:	c7 47 04 00 00 00 00 	movl   $0x0,0x4(%rdi)
  401e99:	48 8d 47 10          	lea    0x10(%rdi),%rax
  401e9d:	48 89 47 08          	mov    %rax,0x8(%rdi)
  401ea1:	c3                   	retq   

0000000000401ea2 <sigalrm_handler>:
  401ea2:	48 83 ec 08          	sub    $0x8,%rsp
  401ea6:	ba 00 00 00 00       	mov    $0x0,%edx
  401eab:	be 70 32 40 00       	mov    $0x403270,%esi
  401eb0:	48 8b 3d f9 25 20 00 	mov    0x2025f9(%rip),%rdi        # 6044b0 <stderr@@GLIBC_2.2.5>
  401eb7:	b8 00 00 00 00       	mov    $0x0,%eax
  401ebc:	e8 cf ed ff ff       	callq  400c90 <fprintf@plt>
  401ec1:	bf 01 00 00 00       	mov    $0x1,%edi
  401ec6:	e8 a5 ee ff ff       	callq  400d70 <exit@plt>

0000000000401ecb <urlencode>:
  401ecb:	41 54                	push   %r12
  401ecd:	55                   	push   %rbp
  401ece:	53                   	push   %rbx
  401ecf:	48 83 ec 10          	sub    $0x10,%rsp
  401ed3:	48 89 fb             	mov    %rdi,%rbx
  401ed6:	48 89 f5             	mov    %rsi,%rbp
  401ed9:	b8 00 00 00 00       	mov    $0x0,%eax
  401ede:	48 c7 c1 ff ff ff ff 	mov    $0xffffffffffffffff,%rcx
  401ee5:	f2 ae                	repnz scas %es:(%rdi),%al
  401ee7:	48 f7 d1             	not    %rcx
  401eea:	8d 41 ff             	lea    -0x1(%rcx),%eax
  401eed:	e9 93 00 00 00       	jmpq   401f85 <urlencode+0xba>
  401ef2:	0f b6 13             	movzbl (%rbx),%edx
  401ef5:	80 fa 2a             	cmp    $0x2a,%dl
  401ef8:	0f 94 c1             	sete   %cl
  401efb:	80 fa 2d             	cmp    $0x2d,%dl
  401efe:	0f 94 c0             	sete   %al
  401f01:	08 c1                	or     %al,%cl
  401f03:	75 1f                	jne    401f24 <urlencode+0x59>
  401f05:	80 fa 2e             	cmp    $0x2e,%dl
  401f08:	74 1a                	je     401f24 <urlencode+0x59>
  401f0a:	80 fa 5f             	cmp    $0x5f,%dl
  401f0d:	74 15                	je     401f24 <urlencode+0x59>
  401f0f:	8d 42 d0             	lea    -0x30(%rdx),%eax
  401f12:	3c 09                	cmp    $0x9,%al
  401f14:	76 0e                	jbe    401f24 <urlencode+0x59>
  401f16:	8d 42 bf             	lea    -0x41(%rdx),%eax
  401f19:	3c 19                	cmp    $0x19,%al
  401f1b:	76 07                	jbe    401f24 <urlencode+0x59>
  401f1d:	8d 42 9f             	lea    -0x61(%rdx),%eax
  401f20:	3c 19                	cmp    $0x19,%al
  401f22:	77 09                	ja     401f2d <urlencode+0x62>
  401f24:	88 55 00             	mov    %dl,0x0(%rbp)
  401f27:	48 8d 6d 01          	lea    0x1(%rbp),%rbp
  401f2b:	eb 51                	jmp    401f7e <urlencode+0xb3>
  401f2d:	80 fa 20             	cmp    $0x20,%dl
  401f30:	75 0a                	jne    401f3c <urlencode+0x71>
  401f32:	c6 45 00 2b          	movb   $0x2b,0x0(%rbp)
  401f36:	48 8d 6d 01          	lea    0x1(%rbp),%rbp
  401f3a:	eb 42                	jmp    401f7e <urlencode+0xb3>
  401f3c:	8d 42 e0             	lea    -0x20(%rdx),%eax
  401f3f:	3c 5f                	cmp    $0x5f,%al
  401f41:	0f 96 c1             	setbe  %cl
  401f44:	80 fa 09             	cmp    $0x9,%dl
  401f47:	0f 94 c0             	sete   %al
  401f4a:	08 c1                	or     %al,%cl
  401f4c:	74 45                	je     401f93 <urlencode+0xc8>
  401f4e:	0f b6 d2             	movzbl %dl,%edx
  401f51:	be 08 33 40 00       	mov    $0x403308,%esi
  401f56:	48 89 e7             	mov    %rsp,%rdi
  401f59:	b8 00 00 00 00       	mov    $0x0,%eax
  401f5e:	e8 fd ed ff ff       	callq  400d60 <sprintf@plt>
  401f63:	0f b6 04 24          	movzbl (%rsp),%eax
  401f67:	88 45 00             	mov    %al,0x0(%rbp)
  401f6a:	0f b6 44 24 01       	movzbl 0x1(%rsp),%eax
  401f6f:	88 45 01             	mov    %al,0x1(%rbp)
  401f72:	0f b6 44 24 02       	movzbl 0x2(%rsp),%eax
  401f77:	88 45 02             	mov    %al,0x2(%rbp)
  401f7a:	48 8d 6d 03          	lea    0x3(%rbp),%rbp
  401f7e:	48 83 c3 01          	add    $0x1,%rbx
  401f82:	44 89 e0             	mov    %r12d,%eax
  401f85:	44 8d 60 ff          	lea    -0x1(%rax),%r12d
  401f89:	85 c0                	test   %eax,%eax
  401f8b:	0f 85 61 ff ff ff    	jne    401ef2 <urlencode+0x27>
  401f91:	eb 05                	jmp    401f98 <urlencode+0xcd>
  401f93:	b8 ff ff ff ff       	mov    $0xffffffff,%eax
  401f98:	48 83 c4 10          	add    $0x10,%rsp
  401f9c:	5b                   	pop    %rbx
  401f9d:	5d                   	pop    %rbp
  401f9e:	41 5c                	pop    %r12
  401fa0:	c3                   	retq   

0000000000401fa1 <rio_writen>:
  401fa1:	41 55                	push   %r13
  401fa3:	41 54                	push   %r12
  401fa5:	55                   	push   %rbp
  401fa6:	53                   	push   %rbx
  401fa7:	48 83 ec 08          	sub    $0x8,%rsp
  401fab:	41 89 fc             	mov    %edi,%r12d
  401fae:	48 89 f5             	mov    %rsi,%rbp
  401fb1:	49 89 d5             	mov    %rdx,%r13
  401fb4:	48 89 d3             	mov    %rdx,%rbx
  401fb7:	eb 28                	jmp    401fe1 <rio_writen+0x40>
  401fb9:	48 89 da             	mov    %rbx,%rdx
  401fbc:	48 89 ee             	mov    %rbp,%rsi
  401fbf:	44 89 e7             	mov    %r12d,%edi
  401fc2:	e8 29 ec ff ff       	callq  400bf0 <write@plt>
  401fc7:	48 85 c0             	test   %rax,%rax
  401fca:	7f 0f                	jg     401fdb <rio_writen+0x3a>
  401fcc:	e8 cf eb ff ff       	callq  400ba0 <__errno_location@plt>
  401fd1:	83 38 04             	cmpl   $0x4,(%rax)
  401fd4:	75 15                	jne    401feb <rio_writen+0x4a>
  401fd6:	b8 00 00 00 00       	mov    $0x0,%eax
  401fdb:	48 29 c3             	sub    %rax,%rbx
  401fde:	48 01 c5             	add    %rax,%rbp
  401fe1:	48 85 db             	test   %rbx,%rbx
  401fe4:	75 d3                	jne    401fb9 <rio_writen+0x18>
  401fe6:	4c 89 e8             	mov    %r13,%rax
  401fe9:	eb 07                	jmp    401ff2 <rio_writen+0x51>
  401feb:	48 c7 c0 ff ff ff ff 	mov    $0xffffffffffffffff,%rax
  401ff2:	48 83 c4 08          	add    $0x8,%rsp
  401ff6:	5b                   	pop    %rbx
  401ff7:	5d                   	pop    %rbp
  401ff8:	41 5c                	pop    %r12
  401ffa:	41 5d                	pop    %r13
  401ffc:	c3                   	retq   

0000000000401ffd <rio_read>:
  401ffd:	41 56                	push   %r14
  401fff:	41 55                	push   %r13
  402001:	41 54                	push   %r12
  402003:	55                   	push   %rbp
  402004:	53                   	push   %rbx
  402005:	48 89 fb             	mov    %rdi,%rbx
  402008:	49 89 f6             	mov    %rsi,%r14
  40200b:	49 89 d5             	mov    %rdx,%r13
  40200e:	4c 8d 67 10          	lea    0x10(%rdi),%r12
  402012:	eb 2a                	jmp    40203e <rio_read+0x41>
  402014:	ba 00 20 00 00       	mov    $0x2000,%edx
  402019:	4c 89 e6             	mov    %r12,%rsi
  40201c:	8b 3b                	mov    (%rbx),%edi
  40201e:	e8 2d ec ff ff       	callq  400c50 <read@plt>
  402023:	89 43 04             	mov    %eax,0x4(%rbx)
  402026:	85 c0                	test   %eax,%eax
  402028:	79 0c                	jns    402036 <rio_read+0x39>
  40202a:	e8 71 eb ff ff       	callq  400ba0 <__errno_location@plt>
  40202f:	83 38 04             	cmpl   $0x4,(%rax)
  402032:	74 0a                	je     40203e <rio_read+0x41>
  402034:	eb 37                	jmp    40206d <rio_read+0x70>
  402036:	85 c0                	test   %eax,%eax
  402038:	74 3c                	je     402076 <rio_read+0x79>
  40203a:	4c 89 63 08          	mov    %r12,0x8(%rbx)
  40203e:	8b 6b 04             	mov    0x4(%rbx),%ebp
  402041:	85 ed                	test   %ebp,%ebp
  402043:	7e cf                	jle    402014 <rio_read+0x17>
  402045:	89 e8                	mov    %ebp,%eax
  402047:	4c 39 e8             	cmp    %r13,%rax
  40204a:	72 03                	jb     40204f <rio_read+0x52>
  40204c:	44 89 ed             	mov    %r13d,%ebp
  40204f:	4c 63 e5             	movslq %ebp,%r12
  402052:	48 8b 73 08          	mov    0x8(%rbx),%rsi
  402056:	4c 89 e2             	mov    %r12,%rdx
  402059:	4c 89 f7             	mov    %r14,%rdi
  40205c:	e8 4f ec ff ff       	callq  400cb0 <memcpy@plt>
  402061:	4c 01 63 08          	add    %r12,0x8(%rbx)
  402065:	29 6b 04             	sub    %ebp,0x4(%rbx)
  402068:	4c 89 e0             	mov    %r12,%rax
  40206b:	eb 0e                	jmp    40207b <rio_read+0x7e>
  40206d:	48 c7 c0 ff ff ff ff 	mov    $0xffffffffffffffff,%rax
  402074:	eb 05                	jmp    40207b <rio_read+0x7e>
  402076:	b8 00 00 00 00       	mov    $0x0,%eax
  40207b:	5b                   	pop    %rbx
  40207c:	5d                   	pop    %rbp
  40207d:	41 5c                	pop    %r12
  40207f:	41 5d                	pop    %r13
  402081:	41 5e                	pop    %r14
  402083:	c3                   	retq   

0000000000402084 <rio_readlineb>:
  402084:	41 55                	push   %r13
  402086:	41 54                	push   %r12
  402088:	55                   	push   %rbp
  402089:	53                   	push   %rbx
  40208a:	48 83 ec 18          	sub    $0x18,%rsp
  40208e:	49 89 fd             	mov    %rdi,%r13
  402091:	48 89 f5             	mov    %rsi,%rbp
  402094:	49 89 d4             	mov    %rdx,%r12
  402097:	bb 01 00 00 00       	mov    $0x1,%ebx
  40209c:	eb 3d                	jmp    4020db <rio_readlineb+0x57>
  40209e:	ba 01 00 00 00       	mov    $0x1,%edx
  4020a3:	48 8d 74 24 0f       	lea    0xf(%rsp),%rsi
  4020a8:	4c 89 ef             	mov    %r13,%rdi
  4020ab:	e8 4d ff ff ff       	callq  401ffd <rio_read>
  4020b0:	83 f8 01             	cmp    $0x1,%eax
  4020b3:	75 12                	jne    4020c7 <rio_readlineb+0x43>
  4020b5:	48 8d 55 01          	lea    0x1(%rbp),%rdx
  4020b9:	0f b6 44 24 0f       	movzbl 0xf(%rsp),%eax
  4020be:	88 45 00             	mov    %al,0x0(%rbp)
  4020c1:	3c 0a                	cmp    $0xa,%al
  4020c3:	75 0f                	jne    4020d4 <rio_readlineb+0x50>
  4020c5:	eb 1b                	jmp    4020e2 <rio_readlineb+0x5e>
  4020c7:	85 c0                	test   %eax,%eax
  4020c9:	75 23                	jne    4020ee <rio_readlineb+0x6a>
  4020cb:	48 83 fb 01          	cmp    $0x1,%rbx
  4020cf:	90                   	nop
  4020d0:	75 13                	jne    4020e5 <rio_readlineb+0x61>
  4020d2:	eb 23                	jmp    4020f7 <rio_readlineb+0x73>
  4020d4:	48 83 c3 01          	add    $0x1,%rbx
  4020d8:	48 89 d5             	mov    %rdx,%rbp
  4020db:	4c 39 e3             	cmp    %r12,%rbx
  4020de:	72 be                	jb     40209e <rio_readlineb+0x1a>
  4020e0:	eb 03                	jmp    4020e5 <rio_readlineb+0x61>
  4020e2:	48 89 d5             	mov    %rdx,%rbp
  4020e5:	c6 45 00 00          	movb   $0x0,0x0(%rbp)
  4020e9:	48 89 d8             	mov    %rbx,%rax
  4020ec:	eb 0e                	jmp    4020fc <rio_readlineb+0x78>
  4020ee:	48 c7 c0 ff ff ff ff 	mov    $0xffffffffffffffff,%rax
  4020f5:	eb 05                	jmp    4020fc <rio_readlineb+0x78>
  4020f7:	b8 00 00 00 00       	mov    $0x0,%eax
  4020fc:	48 83 c4 18          	add    $0x18,%rsp
  402100:	5b                   	pop    %rbx
  402101:	5d                   	pop    %rbp
  402102:	41 5c                	pop    %r12
  402104:	41 5d                	pop    %r13
  402106:	c3                   	retq   

0000000000402107 <submitr>:
  402107:	41 57                	push   %r15
  402109:	41 56                	push   %r14
  40210b:	41 55                	push   %r13
  40210d:	41 54                	push   %r12
  40210f:	55                   	push   %rbp
  402110:	53                   	push   %rbx
  402111:	48 81 ec 48 a0 00 00 	sub    $0xa048,%rsp
  402118:	49 89 fc             	mov    %rdi,%r12
  40211b:	89 74 24 04          	mov    %esi,0x4(%rsp)
  40211f:	49 89 d7             	mov    %rdx,%r15
  402122:	49 89 ce             	mov    %rcx,%r14
  402125:	4c 89 44 24 08       	mov    %r8,0x8(%rsp)
  40212a:	4d 89 cd             	mov    %r9,%r13
  40212d:	48 8b 9c 24 80 a0 00 	mov    0xa080(%rsp),%rbx
  402134:	00 
  402135:	c7 84 24 1c 20 00 00 	movl   $0x0,0x201c(%rsp)
  40213c:	00 00 00 00 
  402140:	ba 00 00 00 00       	mov    $0x0,%edx
  402145:	be 01 00 00 00       	mov    $0x1,%esi
  40214a:	bf 02 00 00 00       	mov    $0x2,%edi
  40214f:	e8 3c ec ff ff       	callq  400d90 <socket@plt>
  402154:	89 c5                	mov    %eax,%ebp
  402156:	85 c0                	test   %eax,%eax
  402158:	79 4e                	jns    4021a8 <submitr+0xa1>
  40215a:	48 b8 45 72 72 6f 72 	movabs $0x43203a726f727245,%rax
  402161:	3a 20 43 
  402164:	48 89 03             	mov    %rax,(%rbx)
  402167:	48 b8 6c 69 65 6e 74 	movabs $0x6e7520746e65696c,%rax
  40216e:	20 75 6e 
  402171:	48 89 43 08          	mov    %rax,0x8(%rbx)
  402175:	48 b8 61 62 6c 65 20 	movabs $0x206f7420656c6261,%rax
  40217c:	74 6f 20 
  40217f:	48 89 43 10          	mov    %rax,0x10(%rbx)
  402183:	48 b8 63 72 65 61 74 	movabs $0x7320657461657263,%rax
  40218a:	65 20 73 
  40218d:	48 89 43 18          	mov    %rax,0x18(%rbx)
  402191:	c7 43 20 6f 63 6b 65 	movl   $0x656b636f,0x20(%rbx)
  402198:	66 c7 43 24 74 00    	movw   $0x74,0x24(%rbx)
  40219e:	b8 ff ff ff ff       	mov    $0xffffffff,%eax
  4021a3:	e9 68 06 00 00       	jmpq   402810 <submitr+0x709>
  4021a8:	4c 89 e7             	mov    %r12,%rdi
  4021ab:	e8 d0 ea ff ff       	callq  400c80 <gethostbyname@plt>
  4021b0:	48 85 c0             	test   %rax,%rax
  4021b3:	75 67                	jne    40221c <submitr+0x115>
  4021b5:	48 b8 45 72 72 6f 72 	movabs $0x44203a726f727245,%rax
  4021bc:	3a 20 44 
  4021bf:	48 89 03             	mov    %rax,(%rbx)
  4021c2:	48 b8 4e 53 20 69 73 	movabs $0x6e7520736920534e,%rax
  4021c9:	20 75 6e 
  4021cc:	48 89 43 08          	mov    %rax,0x8(%rbx)
  4021d0:	48 b8 61 62 6c 65 20 	movabs $0x206f7420656c6261,%rax
  4021d7:	74 6f 20 
  4021da:	48 89 43 10          	mov    %rax,0x10(%rbx)
  4021de:	48 b8 72 65 73 6f 6c 	movabs $0x2065766c6f736572,%rax
  4021e5:	76 65 20 
  4021e8:	48 89 43 18          	mov    %rax,0x18(%rbx)
  4021ec:	48 b8 73 65 72 76 65 	movabs $0x6120726576726573,%rax
  4021f3:	72 20 61 
  4021f6:	48 89 43 20          	mov    %rax,0x20(%rbx)
  4021fa:	c7 43 28 64 64 72 65 	movl   $0x65726464,0x28(%rbx)
  402201:	66 c7 43 2c 73 73    	movw   $0x7373,0x2c(%rbx)
  402207:	c6 43 2e 00          	movb   $0x0,0x2e(%rbx)
  40220b:	89 ef                	mov    %ebp,%edi
  40220d:	e8 2e ea ff ff       	callq  400c40 <close@plt>
  402212:	b8 ff ff ff ff       	mov    $0xffffffff,%eax
  402217:	e9 f4 05 00 00       	jmpq   402810 <submitr+0x709>
  40221c:	48 c7 84 24 30 a0 00 	movq   $0x0,0xa030(%rsp)
  402223:	00 00 00 00 00 
  402228:	48 c7 84 24 38 a0 00 	movq   $0x0,0xa038(%rsp)
  40222f:	00 00 00 00 00 
  402234:	66 c7 84 24 30 a0 00 	movw   $0x2,0xa030(%rsp)
  40223b:	00 02 00 
  40223e:	48 8b 48 18          	mov    0x18(%rax),%rcx
  402242:	48 63 50 14          	movslq 0x14(%rax),%rdx
  402246:	48 8d b4 24 34 a0 00 	lea    0xa034(%rsp),%rsi
  40224d:	00 
  40224e:	48 8b 39             	mov    (%rcx),%rdi
  402251:	e8 ba ea ff ff       	callq  400d10 <bcopy@plt>
  402256:	0f b7 44 24 04       	movzwl 0x4(%rsp),%eax
  40225b:	66 c1 c8 08          	ror    $0x8,%ax
  40225f:	66 89 84 24 32 a0 00 	mov    %ax,0xa032(%rsp)
  402266:	00 
  402267:	ba 10 00 00 00       	mov    $0x10,%edx
  40226c:	48 8d b4 24 30 a0 00 	lea    0xa030(%rsp),%rsi
  402273:	00 
  402274:	89 ef                	mov    %ebp,%edi
  402276:	e8 05 eb ff ff       	callq  400d80 <connect@plt>
  40227b:	85 c0                	test   %eax,%eax
  40227d:	79 59                	jns    4022d8 <submitr+0x1d1>
  40227f:	48 b8 45 72 72 6f 72 	movabs $0x55203a726f727245,%rax
  402286:	3a 20 55 
  402289:	48 89 03             	mov    %rax,(%rbx)
  40228c:	48 b8 6e 61 62 6c 65 	movabs $0x6f7420656c62616e,%rax
  402293:	20 74 6f 
  402296:	48 89 43 08          	mov    %rax,0x8(%rbx)
  40229a:	48 b8 20 63 6f 6e 6e 	movabs $0x7463656e6e6f6320,%rax
  4022a1:	65 63 74 
  4022a4:	48 89 43 10          	mov    %rax,0x10(%rbx)
  4022a8:	48 b8 20 74 6f 20 74 	movabs $0x20656874206f7420,%rax
  4022af:	68 65 20 
  4022b2:	48 89 43 18          	mov    %rax,0x18(%rbx)
  4022b6:	c7 43 20 73 65 72 76 	movl   $0x76726573,0x20(%rbx)
  4022bd:	66 c7 43 24 65 72    	movw   $0x7265,0x24(%rbx)
  4022c3:	c6 43 26 00          	movb   $0x0,0x26(%rbx)
  4022c7:	89 ef                	mov    %ebp,%edi
  4022c9:	e8 72 e9 ff ff       	callq  400c40 <close@plt>
  4022ce:	b8 ff ff ff ff       	mov    $0xffffffff,%eax
  4022d3:	e9 38 05 00 00       	jmpq   402810 <submitr+0x709>
  4022d8:	48 c7 c2 ff ff ff ff 	mov    $0xffffffffffffffff,%rdx
  4022df:	4c 89 ef             	mov    %r13,%rdi
  4022e2:	b8 00 00 00 00       	mov    $0x0,%eax
  4022e7:	48 89 d1             	mov    %rdx,%rcx
  4022ea:	f2 ae                	repnz scas %es:(%rdi),%al
  4022ec:	48 f7 d1             	not    %rcx
  4022ef:	48 89 ce             	mov    %rcx,%rsi
  4022f2:	4c 89 ff             	mov    %r15,%rdi
  4022f5:	48 89 d1             	mov    %rdx,%rcx
  4022f8:	f2 ae                	repnz scas %es:(%rdi),%al
  4022fa:	48 f7 d1             	not    %rcx
  4022fd:	49 89 c8             	mov    %rcx,%r8
  402300:	4c 89 f7             	mov    %r14,%rdi
  402303:	48 89 d1             	mov    %rdx,%rcx
  402306:	f2 ae                	repnz scas %es:(%rdi),%al
  402308:	49 29 c8             	sub    %rcx,%r8
  40230b:	48 8b 7c 24 08       	mov    0x8(%rsp),%rdi
  402310:	48 89 d1             	mov    %rdx,%rcx
  402313:	f2 ae                	repnz scas %es:(%rdi),%al
  402315:	49 29 c8             	sub    %rcx,%r8
  402318:	48 8d 44 76 fd       	lea    -0x3(%rsi,%rsi,2),%rax
  40231d:	49 8d 44 00 7b       	lea    0x7b(%r8,%rax,1),%rax
  402322:	48 3d 00 20 00 00    	cmp    $0x2000,%rax
  402328:	76 72                	jbe    40239c <submitr+0x295>
  40232a:	48 b8 45 72 72 6f 72 	movabs $0x52203a726f727245,%rax
  402331:	3a 20 52 
  402334:	48 89 03             	mov    %rax,(%rbx)
  402337:	48 b8 65 73 75 6c 74 	movabs $0x747320746c757365,%rax
  40233e:	20 73 74 
  402341:	48 89 43 08          	mov    %rax,0x8(%rbx)
  402345:	48 b8 72 69 6e 67 20 	movabs $0x6f6f7420676e6972,%rax
  40234c:	74 6f 6f 
  40234f:	48 89 43 10          	mov    %rax,0x10(%rbx)
  402353:	48 b8 20 6c 61 72 67 	movabs $0x202e656772616c20,%rax
  40235a:	65 2e 20 
  40235d:	48 89 43 18          	mov    %rax,0x18(%rbx)
  402361:	48 b8 49 6e 63 72 65 	movabs $0x6573616572636e49,%rax
  402368:	61 73 65 
  40236b:	48 89 43 20          	mov    %rax,0x20(%rbx)
  40236f:	48 b8 20 53 55 42 4d 	movabs $0x5254494d42555320,%rax
  402376:	49 54 52 
  402379:	48 89 43 28          	mov    %rax,0x28(%rbx)
  40237d:	48 b8 5f 4d 41 58 42 	movabs $0x46554258414d5f,%rax
  402384:	55 46 00 
  402387:	48 89 43 30          	mov    %rax,0x30(%rbx)
  40238b:	89 ef                	mov    %ebp,%edi
  40238d:	e8 ae e8 ff ff       	callq  400c40 <close@plt>
  402392:	b8 ff ff ff ff       	mov    $0xffffffff,%eax
  402397:	e9 74 04 00 00       	jmpq   402810 <submitr+0x709>
  40239c:	48 8d b4 24 20 40 00 	lea    0x4020(%rsp),%rsi
  4023a3:	00 
  4023a4:	b9 00 04 00 00       	mov    $0x400,%ecx
  4023a9:	b8 00 00 00 00       	mov    $0x0,%eax
  4023ae:	48 89 f7             	mov    %rsi,%rdi
  4023b1:	f3 48 ab             	rep stos %rax,%es:(%rdi)
  4023b4:	4c 89 ef             	mov    %r13,%rdi
  4023b7:	e8 0f fb ff ff       	callq  401ecb <urlencode>
  4023bc:	85 c0                	test   %eax,%eax
  4023be:	0f 89 8a 00 00 00    	jns    40244e <submitr+0x347>
  4023c4:	48 b8 45 72 72 6f 72 	movabs $0x52203a726f727245,%rax
  4023cb:	3a 20 52 
  4023ce:	48 89 03             	mov    %rax,(%rbx)
  4023d1:	48 b8 65 73 75 6c 74 	movabs $0x747320746c757365,%rax
  4023d8:	20 73 74 
  4023db:	48 89 43 08          	mov    %rax,0x8(%rbx)
  4023df:	48 b8 72 69 6e 67 20 	movabs $0x6e6f6320676e6972,%rax
  4023e6:	63 6f 6e 
  4023e9:	48 89 43 10          	mov    %rax,0x10(%rbx)
  4023ed:	48 b8 74 61 69 6e 73 	movabs $0x6e6120736e696174,%rax
  4023f4:	20 61 6e 
  4023f7:	48 89 43 18          	mov    %rax,0x18(%rbx)
  4023fb:	48 b8 20 69 6c 6c 65 	movabs $0x6c6167656c6c6920,%rax
  402402:	67 61 6c 
  402405:	48 89 43 20          	mov    %rax,0x20(%rbx)
  402409:	48 b8 20 6f 72 20 75 	movabs $0x72706e7520726f20,%rax
  402410:	6e 70 72 
  402413:	48 89 43 28          	mov    %rax,0x28(%rbx)
  402417:	48 b8 69 6e 74 61 62 	movabs $0x20656c6261746e69,%rax
  40241e:	6c 65 20 
  402421:	48 89 43 30          	mov    %rax,0x30(%rbx)
  402425:	48 b8 63 68 61 72 61 	movabs $0x6574636172616863,%rax
  40242c:	63 74 65 
  40242f:	48 89 43 38          	mov    %rax,0x38(%rbx)
  402433:	66 c7 43 40 72 2e    	movw   $0x2e72,0x40(%rbx)
  402439:	c6 43 42 00          	movb   $0x0,0x42(%rbx)
  40243d:	89 ef                	mov    %ebp,%edi
  40243f:	e8 fc e7 ff ff       	callq  400c40 <close@plt>
  402444:	b8 ff ff ff ff       	mov    $0xffffffff,%eax
  402449:	e9 c2 03 00 00       	jmpq   402810 <submitr+0x709>
  40244e:	4d 89 e1             	mov    %r12,%r9
  402451:	4c 8d 84 24 20 40 00 	lea    0x4020(%rsp),%r8
  402458:	00 
  402459:	4c 89 f9             	mov    %r15,%rcx
  40245c:	4c 89 f2             	mov    %r14,%rdx
  40245f:	be 98 32 40 00       	mov    $0x403298,%esi
  402464:	48 8d bc 24 20 60 00 	lea    0x6020(%rsp),%rdi
  40246b:	00 
  40246c:	b8 00 00 00 00       	mov    $0x0,%eax
  402471:	e8 ea e8 ff ff       	callq  400d60 <sprintf@plt>
  402476:	48 8d bc 24 20 60 00 	lea    0x6020(%rsp),%rdi
  40247d:	00 
  40247e:	b8 00 00 00 00       	mov    $0x0,%eax
  402483:	48 c7 c1 ff ff ff ff 	mov    $0xffffffffffffffff,%rcx
  40248a:	f2 ae                	repnz scas %es:(%rdi),%al
  40248c:	48 f7 d1             	not    %rcx
  40248f:	48 8d 51 ff          	lea    -0x1(%rcx),%rdx
  402493:	48 8d b4 24 20 60 00 	lea    0x6020(%rsp),%rsi
  40249a:	00 
  40249b:	89 ef                	mov    %ebp,%edi
  40249d:	e8 ff fa ff ff       	callq  401fa1 <rio_writen>
  4024a2:	48 85 c0             	test   %rax,%rax
  4024a5:	79 6e                	jns    402515 <submitr+0x40e>
  4024a7:	48 b8 45 72 72 6f 72 	movabs $0x43203a726f727245,%rax
  4024ae:	3a 20 43 
  4024b1:	48 89 03             	mov    %rax,(%rbx)
  4024b4:	48 b8 6c 69 65 6e 74 	movabs $0x6e7520746e65696c,%rax
  4024bb:	20 75 6e 
  4024be:	48 89 43 08          	mov    %rax,0x8(%rbx)
  4024c2:	48 b8 61 62 6c 65 20 	movabs $0x206f7420656c6261,%rax
  4024c9:	74 6f 20 
  4024cc:	48 89 43 10          	mov    %rax,0x10(%rbx)
  4024d0:	48 b8 77 72 69 74 65 	movabs $0x6f74206574697277,%rax
  4024d7:	20 74 6f 
  4024da:	48 89 43 18          	mov    %rax,0x18(%rbx)
  4024de:	48 b8 20 74 68 65 20 	movabs $0x7365722065687420,%rax
  4024e5:	72 65 73 
  4024e8:	48 89 43 20          	mov    %rax,0x20(%rbx)
  4024ec:	48 b8 75 6c 74 20 73 	movabs $0x7672657320746c75,%rax
  4024f3:	65 72 76 
  4024f6:	48 89 43 28          	mov    %rax,0x28(%rbx)
  4024fa:	66 c7 43 30 65 72    	movw   $0x7265,0x30(%rbx)
  402500:	c6 43 32 00          	movb   $0x0,0x32(%rbx)
  402504:	89 ef                	mov    %ebp,%edi
  402506:	e8 35 e7 ff ff       	callq  400c40 <close@plt>
  40250b:	b8 ff ff ff ff       	mov    $0xffffffff,%eax
  402510:	e9 fb 02 00 00       	jmpq   402810 <submitr+0x709>
  402515:	89 ee                	mov    %ebp,%esi
  402517:	48 8d bc 24 20 80 00 	lea    0x8020(%rsp),%rdi
  40251e:	00 
  40251f:	e8 6c f9 ff ff       	callq  401e90 <rio_readinitb>
  402524:	ba 00 20 00 00       	mov    $0x2000,%edx
  402529:	48 8d b4 24 20 60 00 	lea    0x6020(%rsp),%rsi
  402530:	00 
  402531:	48 8d bc 24 20 80 00 	lea    0x8020(%rsp),%rdi
  402538:	00 
  402539:	e8 46 fb ff ff       	callq  402084 <rio_readlineb>
  40253e:	48 85 c0             	test   %rax,%rax
  402541:	7f 7d                	jg     4025c0 <submitr+0x4b9>
  402543:	48 b8 45 72 72 6f 72 	movabs $0x43203a726f727245,%rax
  40254a:	3a 20 43 
  40254d:	48 89 03             	mov    %rax,(%rbx)
  402550:	48 b8 6c 69 65 6e 74 	movabs $0x6e7520746e65696c,%rax
  402557:	20 75 6e 
  40255a:	48 89 43 08          	mov    %rax,0x8(%rbx)
  40255e:	48 b8 61 62 6c 65 20 	movabs $0x206f7420656c6261,%rax
  402565:	74 6f 20 
  402568:	48 89 43 10          	mov    %rax,0x10(%rbx)
  40256c:	48 b8 72 65 61 64 20 	movabs $0x7269662064616572,%rax
  402573:	66 69 72 
  402576:	48 89 43 18          	mov    %rax,0x18(%rbx)
  40257a:	48 b8 73 74 20 68 65 	movabs $0x6564616568207473,%rax
  402581:	61 64 65 
  402584:	48 89 43 20          	mov    %rax,0x20(%rbx)
  402588:	48 b8 72 20 66 72 6f 	movabs $0x72206d6f72662072,%rax
  40258f:	6d 20 72 
  402592:	48 89 43 28          	mov    %rax,0x28(%rbx)
  402596:	48 b8 65 73 75 6c 74 	movabs $0x657320746c757365,%rax
  40259d:	20 73 65 
  4025a0:	48 89 43 30          	mov    %rax,0x30(%rbx)
  4025a4:	c7 43 38 72 76 65 72 	movl   $0x72657672,0x38(%rbx)
  4025ab:	c6 43 3c 00          	movb   $0x0,0x3c(%rbx)
  4025af:	89 ef                	mov    %ebp,%edi
  4025b1:	e8 8a e6 ff ff       	callq  400c40 <close@plt>
  4025b6:	b8 ff ff ff ff       	mov    $0xffffffff,%eax
  4025bb:	e9 50 02 00 00       	jmpq   402810 <submitr+0x709>
  4025c0:	4c 8d 44 24 10       	lea    0x10(%rsp),%r8
  4025c5:	48 8d 8c 24 1c 20 00 	lea    0x201c(%rsp),%rcx
  4025cc:	00 
  4025cd:	48 8d 94 24 20 20 00 	lea    0x2020(%rsp),%rdx
  4025d4:	00 
  4025d5:	be 0f 33 40 00       	mov    $0x40330f,%esi
  4025da:	48 8d bc 24 20 60 00 	lea    0x6020(%rsp),%rdi
  4025e1:	00 
  4025e2:	b8 00 00 00 00       	mov    $0x0,%eax
  4025e7:	e8 04 e7 ff ff       	callq  400cf0 <__isoc99_sscanf@plt>
  4025ec:	e9 98 00 00 00       	jmpq   402689 <submitr+0x582>
  4025f1:	ba 00 20 00 00       	mov    $0x2000,%edx
  4025f6:	48 8d b4 24 20 60 00 	lea    0x6020(%rsp),%rsi
  4025fd:	00 
  4025fe:	48 8d bc 24 20 80 00 	lea    0x8020(%rsp),%rdi
  402605:	00 
  402606:	e8 79 fa ff ff       	callq  402084 <rio_readlineb>
  40260b:	48 85 c0             	test   %rax,%rax
  40260e:	7f 79                	jg     402689 <submitr+0x582>
  402610:	48 b8 45 72 72 6f 72 	movabs $0x43203a726f727245,%rax
  402617:	3a 20 43 
  40261a:	48 89 03             	mov    %rax,(%rbx)
  40261d:	48 b8 6c 69 65 6e 74 	movabs $0x6e7520746e65696c,%rax
  402624:	20 75 6e 
  402627:	48 89 43 08          	mov    %rax,0x8(%rbx)
  40262b:	48 b8 61 62 6c 65 20 	movabs $0x206f7420656c6261,%rax
  402632:	74 6f 20 
  402635:	48 89 43 10          	mov    %rax,0x10(%rbx)
  402639:	48 b8 72 65 61 64 20 	movabs $0x6165682064616572,%rax
  402640:	68 65 61 
  402643:	48 89 43 18          	mov    %rax,0x18(%rbx)
  402647:	48 b8 64 65 72 73 20 	movabs $0x6f72662073726564,%rax
  40264e:	66 72 6f 
  402651:	48 89 43 20          	mov    %rax,0x20(%rbx)
  402655:	48 b8 6d 20 74 68 65 	movabs $0x657220656874206d,%rax
  40265c:	20 72 65 
  40265f:	48 89 43 28          	mov    %rax,0x28(%rbx)
  402663:	48 b8 73 75 6c 74 20 	movabs $0x72657320746c7573,%rax
  40266a:	73 65 72 
  40266d:	48 89 43 30          	mov    %rax,0x30(%rbx)
  402671:	c7 43 38 76 65 72 00 	movl   $0x726576,0x38(%rbx)
  402678:	89 ef                	mov    %ebp,%edi
  40267a:	e8 c1 e5 ff ff       	callq  400c40 <close@plt>
  40267f:	b8 ff ff ff ff       	mov    $0xffffffff,%eax
  402684:	e9 87 01 00 00       	jmpq   402810 <submitr+0x709>
  402689:	0f b6 84 24 20 60 00 	movzbl 0x6020(%rsp),%eax
  402690:	00 
  402691:	83 e8 0d             	sub    $0xd,%eax
  402694:	75 15                	jne    4026ab <submitr+0x5a4>
  402696:	0f b6 84 24 21 60 00 	movzbl 0x6021(%rsp),%eax
  40269d:	00 
  40269e:	83 e8 0a             	sub    $0xa,%eax
  4026a1:	75 08                	jne    4026ab <submitr+0x5a4>
  4026a3:	0f b6 84 24 22 60 00 	movzbl 0x6022(%rsp),%eax
  4026aa:	00 
  4026ab:	85 c0                	test   %eax,%eax
  4026ad:	0f 85 3e ff ff ff    	jne    4025f1 <submitr+0x4ea>
  4026b3:	ba 00 20 00 00       	mov    $0x2000,%edx
  4026b8:	48 8d b4 24 20 60 00 	lea    0x6020(%rsp),%rsi
  4026bf:	00 
  4026c0:	48 8d bc 24 20 80 00 	lea    0x8020(%rsp),%rdi
  4026c7:	00 
  4026c8:	e8 b7 f9 ff ff       	callq  402084 <rio_readlineb>
  4026cd:	48 85 c0             	test   %rax,%rax
  4026d0:	0f 8f 83 00 00 00    	jg     402759 <submitr+0x652>
  4026d6:	48 b8 45 72 72 6f 72 	movabs $0x43203a726f727245,%rax
  4026dd:	3a 20 43 
  4026e0:	48 89 03             	mov    %rax,(%rbx)
  4026e3:	48 b8 6c 69 65 6e 74 	movabs $0x6e7520746e65696c,%rax
  4026ea:	20 75 6e 
  4026ed:	48 89 43 08          	mov    %rax,0x8(%rbx)
  4026f1:	48 b8 61 62 6c 65 20 	movabs $0x206f7420656c6261,%rax
  4026f8:	74 6f 20 
  4026fb:	48 89 43 10          	mov    %rax,0x10(%rbx)
  4026ff:	48 b8 72 65 61 64 20 	movabs $0x6174732064616572,%rax
  402706:	73 74 61 
  402709:	48 89 43 18          	mov    %rax,0x18(%rbx)
  40270d:	48 b8 74 75 73 20 6d 	movabs $0x7373656d20737574,%rax
  402714:	65 73 73 
  402717:	48 89 43 20          	mov    %rax,0x20(%rbx)
  40271b:	48 b8 61 67 65 20 66 	movabs $0x6d6f726620656761,%rax
  402722:	72 6f 6d 
  402725:	48 89 43 28          	mov    %rax,0x28(%rbx)
  402729:	48 b8 20 72 65 73 75 	movabs $0x20746c7573657220,%rax
  402730:	6c 74 20 
  402733:	48 89 43 30          	mov    %rax,0x30(%rbx)
  402737:	c7 43 38 73 65 72 76 	movl   $0x76726573,0x38(%rbx)
  40273e:	66 c7 43 3c 65 72    	movw   $0x7265,0x3c(%rbx)
  402744:	c6 43 3e 00          	movb   $0x0,0x3e(%rbx)
  402748:	89 ef                	mov    %ebp,%edi
  40274a:	e8 f1 e4 ff ff       	callq  400c40 <close@plt>
  40274f:	b8 ff ff ff ff       	mov    $0xffffffff,%eax
  402754:	e9 b7 00 00 00       	jmpq   402810 <submitr+0x709>
  402759:	8b 94 24 1c 20 00 00 	mov    0x201c(%rsp),%edx
  402760:	81 fa c8 00 00 00    	cmp    $0xc8,%edx
  402766:	74 28                	je     402790 <submitr+0x689>
  402768:	48 8d 4c 24 10       	lea    0x10(%rsp),%rcx
  40276d:	be d8 32 40 00       	mov    $0x4032d8,%esi
  402772:	48 89 df             	mov    %rbx,%rdi
  402775:	b8 00 00 00 00       	mov    $0x0,%eax
  40277a:	e8 e1 e5 ff ff       	callq  400d60 <sprintf@plt>
  40277f:	89 ef                	mov    %ebp,%edi
  402781:	e8 ba e4 ff ff       	callq  400c40 <close@plt>
  402786:	b8 ff ff ff ff       	mov    $0xffffffff,%eax
  40278b:	e9 80 00 00 00       	jmpq   402810 <submitr+0x709>
  402790:	48 8d b4 24 20 60 00 	lea    0x6020(%rsp),%rsi
  402797:	00 
  402798:	48 89 df             	mov    %rbx,%rdi
  40279b:	e8 30 e4 ff ff       	callq  400bd0 <strcpy@plt>
  4027a0:	89 ef                	mov    %ebp,%edi
  4027a2:	e8 99 e4 ff ff       	callq  400c40 <close@plt>
  4027a7:	0f b6 03             	movzbl (%rbx),%eax
  4027aa:	83 e8 4f             	sub    $0x4f,%eax
  4027ad:	75 18                	jne    4027c7 <submitr+0x6c0>
  4027af:	0f b6 53 01          	movzbl 0x1(%rbx),%edx
  4027b3:	83 ea 4b             	sub    $0x4b,%edx
  4027b6:	75 11                	jne    4027c9 <submitr+0x6c2>
  4027b8:	0f b6 53 02          	movzbl 0x2(%rbx),%edx
  4027bc:	83 ea 0a             	sub    $0xa,%edx
  4027bf:	75 08                	jne    4027c9 <submitr+0x6c2>
  4027c1:	0f b6 53 03          	movzbl 0x3(%rbx),%edx
  4027c5:	eb 02                	jmp    4027c9 <submitr+0x6c2>
  4027c7:	89 c2                	mov    %eax,%edx
  4027c9:	85 d2                	test   %edx,%edx
  4027cb:	74 30                	je     4027fd <submitr+0x6f6>
  4027cd:	bf 20 33 40 00       	mov    $0x403320,%edi
  4027d2:	b9 05 00 00 00       	mov    $0x5,%ecx
  4027d7:	48 89 de             	mov    %rbx,%rsi
  4027da:	f3 a6                	repz cmpsb %es:(%rdi),%ds:(%rsi)
  4027dc:	0f 97 c1             	seta   %cl
  4027df:	0f 92 c2             	setb   %dl
  4027e2:	38 d1                	cmp    %dl,%cl
  4027e4:	74 1e                	je     402804 <submitr+0x6fd>
  4027e6:	85 c0                	test   %eax,%eax
  4027e8:	75 0d                	jne    4027f7 <submitr+0x6f0>
  4027ea:	0f b6 43 01          	movzbl 0x1(%rbx),%eax
  4027ee:	83 e8 4b             	sub    $0x4b,%eax
  4027f1:	75 04                	jne    4027f7 <submitr+0x6f0>
  4027f3:	0f b6 43 02          	movzbl 0x2(%rbx),%eax
  4027f7:	85 c0                	test   %eax,%eax
  4027f9:	75 10                	jne    40280b <submitr+0x704>
  4027fb:	eb 13                	jmp    402810 <submitr+0x709>
  4027fd:	b8 00 00 00 00       	mov    $0x0,%eax
  402802:	eb 0c                	jmp    402810 <submitr+0x709>
  402804:	b8 00 00 00 00       	mov    $0x0,%eax
  402809:	eb 05                	jmp    402810 <submitr+0x709>
  40280b:	b8 ff ff ff ff       	mov    $0xffffffff,%eax
  402810:	48 81 c4 48 a0 00 00 	add    $0xa048,%rsp
  402817:	5b                   	pop    %rbx
  402818:	5d                   	pop    %rbp
  402819:	41 5c                	pop    %r12
  40281b:	41 5d                	pop    %r13
  40281d:	41 5e                	pop    %r14
  40281f:	41 5f                	pop    %r15
  402821:	c3                   	retq   

0000000000402822 <init_timeout>:
  402822:	53                   	push   %rbx
  402823:	89 fb                	mov    %edi,%ebx
  402825:	85 ff                	test   %edi,%edi
  402827:	74 1f                	je     402848 <init_timeout+0x26>
  402829:	85 ff                	test   %edi,%edi
  40282b:	79 05                	jns    402832 <init_timeout+0x10>
  40282d:	bb 00 00 00 00       	mov    $0x0,%ebx
  402832:	be a2 1e 40 00       	mov    $0x401ea2,%esi
  402837:	bf 0e 00 00 00       	mov    $0xe,%edi
  40283c:	e8 2f e4 ff ff       	callq  400c70 <signal@plt>
  402841:	89 df                	mov    %ebx,%edi
  402843:	e8 e8 e3 ff ff       	callq  400c30 <alarm@plt>
  402848:	5b                   	pop    %rbx
  402849:	c3                   	retq   

000000000040284a <init_driver>:
  40284a:	55                   	push   %rbp
  40284b:	53                   	push   %rbx
  40284c:	48 83 ec 18          	sub    $0x18,%rsp
  402850:	48 89 fd             	mov    %rdi,%rbp
  402853:	be 01 00 00 00       	mov    $0x1,%esi
  402858:	bf 0d 00 00 00       	mov    $0xd,%edi
  40285d:	e8 0e e4 ff ff       	callq  400c70 <signal@plt>
  402862:	be 01 00 00 00       	mov    $0x1,%esi
  402867:	bf 1d 00 00 00       	mov    $0x1d,%edi
  40286c:	e8 ff e3 ff ff       	callq  400c70 <signal@plt>
  402871:	be 01 00 00 00       	mov    $0x1,%esi
  402876:	bf 1d 00 00 00       	mov    $0x1d,%edi
  40287b:	e8 f0 e3 ff ff       	callq  400c70 <signal@plt>
  402880:	ba 00 00 00 00       	mov    $0x0,%edx
  402885:	be 01 00 00 00       	mov    $0x1,%esi
  40288a:	bf 02 00 00 00       	mov    $0x2,%edi
  40288f:	e8 fc e4 ff ff       	callq  400d90 <socket@plt>
  402894:	89 c3                	mov    %eax,%ebx
  402896:	85 c0                	test   %eax,%eax
  402898:	79 4f                	jns    4028e9 <init_driver+0x9f>
  40289a:	48 b8 45 72 72 6f 72 	movabs $0x43203a726f727245,%rax
  4028a1:	3a 20 43 
  4028a4:	48 89 45 00          	mov    %rax,0x0(%rbp)
  4028a8:	48 b8 6c 69 65 6e 74 	movabs $0x6e7520746e65696c,%rax
  4028af:	20 75 6e 
  4028b2:	48 89 45 08          	mov    %rax,0x8(%rbp)
  4028b6:	48 b8 61 62 6c 65 20 	movabs $0x206f7420656c6261,%rax
  4028bd:	74 6f 20 
  4028c0:	48 89 45 10          	mov    %rax,0x10(%rbp)
  4028c4:	48 b8 63 72 65 61 74 	movabs $0x7320657461657263,%rax
  4028cb:	65 20 73 
  4028ce:	48 89 45 18          	mov    %rax,0x18(%rbp)
  4028d2:	c7 45 20 6f 63 6b 65 	movl   $0x656b636f,0x20(%rbp)
  4028d9:	66 c7 45 24 74 00    	movw   $0x74,0x24(%rbp)
  4028df:	b8 ff ff ff ff       	mov    $0xffffffff,%eax
  4028e4:	e9 23 01 00 00       	jmpq   402a0c <init_driver+0x1c2>
  4028e9:	bf 25 33 40 00       	mov    $0x403325,%edi
  4028ee:	e8 8d e3 ff ff       	callq  400c80 <gethostbyname@plt>
  4028f3:	48 85 c0             	test   %rax,%rax
  4028f6:	75 68                	jne    402960 <init_driver+0x116>
  4028f8:	48 b8 45 72 72 6f 72 	movabs $0x44203a726f727245,%rax
  4028ff:	3a 20 44 
  402902:	48 89 45 00          	mov    %rax,0x0(%rbp)
  402906:	48 b8 4e 53 20 69 73 	movabs $0x6e7520736920534e,%rax
  40290d:	20 75 6e 
  402910:	48 89 45 08          	mov    %rax,0x8(%rbp)
  402914:	48 b8 61 62 6c 65 20 	movabs $0x206f7420656c6261,%rax
  40291b:	74 6f 20 
  40291e:	48 89 45 10          	mov    %rax,0x10(%rbp)
  402922:	48 b8 72 65 73 6f 6c 	movabs $0x2065766c6f736572,%rax
  402929:	76 65 20 
  40292c:	48 89 45 18          	mov    %rax,0x18(%rbp)
  402930:	48 b8 73 65 72 76 65 	movabs $0x6120726576726573,%rax
  402937:	72 20 61 
  40293a:	48 89 45 20          	mov    %rax,0x20(%rbp)
  40293e:	c7 45 28 64 64 72 65 	movl   $0x65726464,0x28(%rbp)
  402945:	66 c7 45 2c 73 73    	movw   $0x7373,0x2c(%rbp)
  40294b:	c6 45 2e 00          	movb   $0x0,0x2e(%rbp)
  40294f:	89 df                	mov    %ebx,%edi
  402951:	e8 ea e2 ff ff       	callq  400c40 <close@plt>
  402956:	b8 ff ff ff ff       	mov    $0xffffffff,%eax
  40295b:	e9 ac 00 00 00       	jmpq   402a0c <init_driver+0x1c2>
  402960:	48 c7 04 24 00 00 00 	movq   $0x0,(%rsp)
  402967:	00 
  402968:	48 c7 44 24 08 00 00 	movq   $0x0,0x8(%rsp)
  40296f:	00 00 
  402971:	66 c7 04 24 02 00    	movw   $0x2,(%rsp)
  402977:	48 8b 48 18          	mov    0x18(%rax),%rcx
  40297b:	48 63 50 14          	movslq 0x14(%rax),%rdx
  40297f:	48 8d 74 24 04       	lea    0x4(%rsp),%rsi
  402984:	48 8b 39             	mov    (%rcx),%rdi
  402987:	e8 84 e3 ff ff       	callq  400d10 <bcopy@plt>
  40298c:	66 c7 44 24 02 3c 9a 	movw   $0x9a3c,0x2(%rsp)
  402993:	ba 10 00 00 00       	mov    $0x10,%edx
  402998:	48 89 e6             	mov    %rsp,%rsi
  40299b:	89 df                	mov    %ebx,%edi
  40299d:	e8 de e3 ff ff       	callq  400d80 <connect@plt>
  4029a2:	85 c0                	test   %eax,%eax
  4029a4:	79 50                	jns    4029f6 <init_driver+0x1ac>
  4029a6:	48 b8 45 72 72 6f 72 	movabs $0x55203a726f727245,%rax
  4029ad:	3a 20 55 
  4029b0:	48 89 45 00          	mov    %rax,0x0(%rbp)
  4029b4:	48 b8 6e 61 62 6c 65 	movabs $0x6f7420656c62616e,%rax
  4029bb:	20 74 6f 
  4029be:	48 89 45 08          	mov    %rax,0x8(%rbp)
  4029c2:	48 b8 20 63 6f 6e 6e 	movabs $0x7463656e6e6f6320,%rax
  4029c9:	65 63 74 
  4029cc:	48 89 45 10          	mov    %rax,0x10(%rbp)
  4029d0:	48 b8 20 74 6f 20 73 	movabs $0x76726573206f7420,%rax
  4029d7:	65 72 76 
  4029da:	48 89 45 18          	mov    %rax,0x18(%rbp)
  4029de:	66 c7 45 20 65 72    	movw   $0x7265,0x20(%rbp)
  4029e4:	c6 45 22 00          	movb   $0x0,0x22(%rbp)
  4029e8:	89 df                	mov    %ebx,%edi
  4029ea:	e8 51 e2 ff ff       	callq  400c40 <close@plt>
  4029ef:	b8 ff ff ff ff       	mov    $0xffffffff,%eax
  4029f4:	eb 16                	jmp    402a0c <init_driver+0x1c2>
  4029f6:	89 df                	mov    %ebx,%edi
  4029f8:	e8 43 e2 ff ff       	callq  400c40 <close@plt>
  4029fd:	66 c7 45 00 4f 4b    	movw   $0x4b4f,0x0(%rbp)
  402a03:	c6 45 02 00          	movb   $0x0,0x2(%rbp)
  402a07:	b8 00 00 00 00       	mov    $0x0,%eax
  402a0c:	48 83 c4 18          	add    $0x18,%rsp
  402a10:	5b                   	pop    %rbx
  402a11:	5d                   	pop    %rbp
  402a12:	c3                   	retq   

0000000000402a13 <driver_post>:
  402a13:	53                   	push   %rbx
  402a14:	48 83 ec 10          	sub    $0x10,%rsp
  402a18:	4c 89 cb             	mov    %r9,%rbx
  402a1b:	45 85 c0             	test   %r8d,%r8d
  402a1e:	74 22                	je     402a42 <driver_post+0x2f>
  402a20:	48 89 ce             	mov    %rcx,%rsi
  402a23:	bf 31 33 40 00       	mov    $0x403331,%edi
  402a28:	b8 00 00 00 00       	mov    $0x0,%eax
  402a2d:	e8 de e1 ff ff       	callq  400c10 <printf@plt>
  402a32:	66 c7 03 4f 4b       	movw   $0x4b4f,(%rbx)
  402a37:	c6 43 02 00          	movb   $0x0,0x2(%rbx)
  402a3b:	b8 00 00 00 00       	mov    $0x0,%eax
  402a40:	eb 39                	jmp    402a7b <driver_post+0x68>
  402a42:	48 85 ff             	test   %rdi,%rdi
  402a45:	74 26                	je     402a6d <driver_post+0x5a>
  402a47:	80 3f 00             	cmpb   $0x0,(%rdi)
  402a4a:	74 21                	je     402a6d <driver_post+0x5a>
  402a4c:	4c 89 0c 24          	mov    %r9,(%rsp)
  402a50:	49 89 c9             	mov    %rcx,%r9
  402a53:	49 89 d0             	mov    %rdx,%r8
  402a56:	48 89 f9             	mov    %rdi,%rcx
  402a59:	48 89 f2             	mov    %rsi,%rdx
  402a5c:	be 9a 3c 00 00       	mov    $0x3c9a,%esi
  402a61:	bf 25 33 40 00       	mov    $0x403325,%edi
  402a66:	e8 9c f6 ff ff       	callq  402107 <submitr>
  402a6b:	eb 0e                	jmp    402a7b <driver_post+0x68>
  402a6d:	66 c7 03 4f 4b       	movw   $0x4b4f,(%rbx)
  402a72:	c6 43 02 00          	movb   $0x0,0x2(%rbx)
  402a76:	b8 00 00 00 00       	mov    $0x0,%eax
  402a7b:	48 83 c4 10          	add    $0x10,%rsp
  402a7f:	5b                   	pop    %rbx
  402a80:	c3                   	retq   

0000000000402a81 <check>:
  402a81:	89 f8                	mov    %edi,%eax
  402a83:	c1 e8 1c             	shr    $0x1c,%eax
  402a86:	85 c0                	test   %eax,%eax
  402a88:	74 1d                	je     402aa7 <check+0x26>
  402a8a:	b9 00 00 00 00       	mov    $0x0,%ecx
  402a8f:	eb 0b                	jmp    402a9c <check+0x1b>
  402a91:	89 f8                	mov    %edi,%eax
  402a93:	d3 e8                	shr    %cl,%eax
  402a95:	3c 0a                	cmp    $0xa,%al
  402a97:	74 14                	je     402aad <check+0x2c>
  402a99:	83 c1 08             	add    $0x8,%ecx
  402a9c:	83 f9 1f             	cmp    $0x1f,%ecx
  402a9f:	7e f0                	jle    402a91 <check+0x10>
  402aa1:	b8 01 00 00 00       	mov    $0x1,%eax
  402aa6:	c3                   	retq   
  402aa7:	b8 00 00 00 00       	mov    $0x0,%eax
  402aac:	c3                   	retq   
  402aad:	b8 00 00 00 00       	mov    $0x0,%eax
  402ab2:	c3                   	retq   

0000000000402ab3 <gencookie>:
  402ab3:	53                   	push   %rbx
  402ab4:	83 c7 01             	add    $0x1,%edi
  402ab7:	e8 f4 e0 ff ff       	callq  400bb0 <srandom@plt>
  402abc:	e8 0f e2 ff ff       	callq  400cd0 <random@plt>
  402ac1:	89 c3                	mov    %eax,%ebx
  402ac3:	89 c7                	mov    %eax,%edi
  402ac5:	e8 b7 ff ff ff       	callq  402a81 <check>
  402aca:	85 c0                	test   %eax,%eax
  402acc:	74 ee                	je     402abc <gencookie+0x9>
  402ace:	89 d8                	mov    %ebx,%eax
  402ad0:	5b                   	pop    %rbx
  402ad1:	c3                   	retq   
  402ad2:	66 2e 0f 1f 84 00 00 	nopw   %cs:0x0(%rax,%rax,1)
  402ad9:	00 00 00 
  402adc:	0f 1f 40 00          	nopl   0x0(%rax)

0000000000402ae0 <__libc_csu_init>:
  402ae0:	41 57                	push   %r15
  402ae2:	41 89 ff             	mov    %edi,%r15d
  402ae5:	41 56                	push   %r14
  402ae7:	49 89 f6             	mov    %rsi,%r14
  402aea:	41 55                	push   %r13
  402aec:	49 89 d5             	mov    %rdx,%r13
  402aef:	41 54                	push   %r12
  402af1:	4c 8d 25 18 13 20 00 	lea    0x201318(%rip),%r12        # 603e10 <__frame_dummy_init_array_entry>
  402af8:	55                   	push   %rbp
  402af9:	48 8d 2d 18 13 20 00 	lea    0x201318(%rip),%rbp        # 603e18 <__init_array_end>
  402b00:	53                   	push   %rbx
  402b01:	4c 29 e5             	sub    %r12,%rbp
  402b04:	31 db                	xor    %ebx,%ebx
  402b06:	48 c1 fd 03          	sar    $0x3,%rbp
  402b0a:	48 83 ec 08          	sub    $0x8,%rsp
  402b0e:	e8 5d e0 ff ff       	callq  400b70 <_init>
  402b13:	48 85 ed             	test   %rbp,%rbp
  402b16:	74 1e                	je     402b36 <__libc_csu_init+0x56>
  402b18:	0f 1f 84 00 00 00 00 	nopl   0x0(%rax,%rax,1)
  402b1f:	00 
  402b20:	4c 89 ea             	mov    %r13,%rdx
  402b23:	4c 89 f6             	mov    %r14,%rsi
  402b26:	44 89 ff             	mov    %r15d,%edi
  402b29:	41 ff 14 dc          	callq  *(%r12,%rbx,8)
  402b2d:	48 83 c3 01          	add    $0x1,%rbx
  402b31:	48 39 eb             	cmp    %rbp,%rbx
  402b34:	75 ea                	jne    402b20 <__libc_csu_init+0x40>
  402b36:	48 83 c4 08          	add    $0x8,%rsp
  402b3a:	5b                   	pop    %rbx
  402b3b:	5d                   	pop    %rbp
  402b3c:	41 5c                	pop    %r12
  402b3e:	41 5d                	pop    %r13
  402b40:	41 5e                	pop    %r14
  402b42:	41 5f                	pop    %r15
  402b44:	c3                   	retq   
  402b45:	90                   	nop
  402b46:	66 2e 0f 1f 84 00 00 	nopw   %cs:0x0(%rax,%rax,1)
  402b4d:	00 00 00 

0000000000402b50 <__libc_csu_fini>:
  402b50:	f3 c3                	repz retq 

Disassembly of section .fini:

0000000000402b54 <_fini>:
  402b54:	48 83 ec 08          	sub    $0x8,%rsp
  402b58:	48 83 c4 08          	add    $0x8,%rsp
  402b5c:	c3                   	retq   
